ARM GAS  /tmp/ccXpwCvt.s 			page 1


   1              		.cpu cortex-m4
   2              		.eabi_attribute 27, 1
   3              		.eabi_attribute 28, 1
   4              		.eabi_attribute 20, 1
   5              		.eabi_attribute 21, 1
   6              		.eabi_attribute 23, 3
   7              		.eabi_attribute 24, 1
   8              		.eabi_attribute 25, 1
   9              		.eabi_attribute 26, 1
  10              		.eabi_attribute 30, 1
  11              		.eabi_attribute 34, 1
  12              		.eabi_attribute 18, 4
  13              		.file	"gpio.c"
  14              		.text
  15              	.Ltext0:
  16              		.cfi_sections	.debug_frame
  17              		.section	.text.MX_GPIO_Init,"ax",%progbits
  18              		.align	1
  19              		.global	MX_GPIO_Init
  20              		.syntax unified
  21              		.thumb
  22              		.thumb_func
  23              		.fpu fpv4-sp-d16
  25              	MX_GPIO_Init:
  26              	.LFB284:
  27              		.file 1 "HAL/gpio.c"
   1:HAL/gpio.c    **** /**
   2:HAL/gpio.c    ****   ******************************************************************************
   3:HAL/gpio.c    ****   * File Name          : gpio.c
   4:HAL/gpio.c    ****   * Description        : This file provides code for the configuration
   5:HAL/gpio.c    ****   *                      of all used GPIO pins.
   6:HAL/gpio.c    ****   ******************************************************************************
   7:HAL/gpio.c    ****   * @attention
   8:HAL/gpio.c    ****   *
   9:HAL/gpio.c    ****   * <h2><center>&copy; Copyright (c) 2019 STMicroelectronics.
  10:HAL/gpio.c    ****   * All rights reserved.</center></h2>
  11:HAL/gpio.c    ****   *
  12:HAL/gpio.c    ****   * This software component is licensed by ST under BSD 3-Clause license,
  13:HAL/gpio.c    ****   * the "License"; You may not use this file except in compliance with the
  14:HAL/gpio.c    ****   * License. You may obtain a copy of the License at:
  15:HAL/gpio.c    ****   *                        opensource.org/licenses/BSD-3-Clause
  16:HAL/gpio.c    ****   *
  17:HAL/gpio.c    ****   ******************************************************************************
  18:HAL/gpio.c    ****   */
  19:HAL/gpio.c    **** 
  20:HAL/gpio.c    **** /* Includes ------------------------------------------------------------------*/
  21:HAL/gpio.c    **** #include "gpio.h"
  22:HAL/gpio.c    **** /* USER CODE BEGIN 0 */
  23:HAL/gpio.c    **** 
  24:HAL/gpio.c    **** /* USER CODE END 0 */
  25:HAL/gpio.c    **** 
  26:HAL/gpio.c    **** /*----------------------------------------------------------------------------*/
  27:HAL/gpio.c    **** /* Configure GPIO                                                             */
  28:HAL/gpio.c    **** /*----------------------------------------------------------------------------*/
  29:HAL/gpio.c    **** /* USER CODE BEGIN 1 */
  30:HAL/gpio.c    **** 
  31:HAL/gpio.c    **** /* USER CODE END 1 */
ARM GAS  /tmp/ccXpwCvt.s 			page 2


  32:HAL/gpio.c    **** 
  33:HAL/gpio.c    **** /** Configure pins as 
  34:HAL/gpio.c    ****         * Analog 
  35:HAL/gpio.c    ****         * Input 
  36:HAL/gpio.c    ****         * Output
  37:HAL/gpio.c    ****         * EVENT_OUT
  38:HAL/gpio.c    ****         * EXTI
  39:HAL/gpio.c    ****         * Free pins are configured automatically as Analog (this feature is enabled through 
  40:HAL/gpio.c    ****         * the Code Generation settings)
  41:HAL/gpio.c    **** */
  42:HAL/gpio.c    **** void MX_GPIO_Init(void)
  43:HAL/gpio.c    **** {
  28              		.loc 1 43 0
  29              		.cfi_startproc
  30              		@ args = 0, pretend = 0, frame = 40
  31              		@ frame_needed = 0, uses_anonymous_args = 0
  32 0000 30B5     		push	{r4, r5, lr}
  33              	.LCFI0:
  34              		.cfi_def_cfa_offset 12
  35              		.cfi_offset 4, -12
  36              		.cfi_offset 5, -8
  37              		.cfi_offset 14, -4
  38 0002 8BB0     		sub	sp, sp, #44
  39              	.LCFI1:
  40              		.cfi_def_cfa_offset 56
  44:HAL/gpio.c    **** 
  45:HAL/gpio.c    ****   GPIO_InitTypeDef GPIO_InitStruct = {0};
  41              		.loc 1 45 0
  42 0004 0024     		movs	r4, #0
  43 0006 0594     		str	r4, [sp, #20]
  44 0008 0694     		str	r4, [sp, #24]
  45 000a 0794     		str	r4, [sp, #28]
  46 000c 0894     		str	r4, [sp, #32]
  47 000e 0994     		str	r4, [sp, #36]
  48              	.LBB2:
  46:HAL/gpio.c    **** 
  47:HAL/gpio.c    ****   /* GPIO Ports Clock Enable */
  48:HAL/gpio.c    ****   __HAL_RCC_GPIOC_CLK_ENABLE();
  49              		.loc 1 48 0
  50 0010 2F4B     		ldr	r3, .L3
  51 0012 DA6C     		ldr	r2, [r3, #76]
  52 0014 42F00402 		orr	r2, r2, #4
  53 0018 DA64     		str	r2, [r3, #76]
  54 001a DA6C     		ldr	r2, [r3, #76]
  55 001c 02F00402 		and	r2, r2, #4
  56 0020 0192     		str	r2, [sp, #4]
  57 0022 019A     		ldr	r2, [sp, #4]
  58              	.LBE2:
  59              	.LBB3:
  49:HAL/gpio.c    ****   __HAL_RCC_GPIOH_CLK_ENABLE();
  60              		.loc 1 49 0
  61 0024 DA6C     		ldr	r2, [r3, #76]
  62 0026 42F08002 		orr	r2, r2, #128
  63 002a DA64     		str	r2, [r3, #76]
  64 002c DA6C     		ldr	r2, [r3, #76]
  65 002e 02F08002 		and	r2, r2, #128
  66 0032 0292     		str	r2, [sp, #8]
ARM GAS  /tmp/ccXpwCvt.s 			page 3


  67 0034 029A     		ldr	r2, [sp, #8]
  68              	.LBE3:
  69              	.LBB4:
  50:HAL/gpio.c    ****   __HAL_RCC_GPIOA_CLK_ENABLE();
  70              		.loc 1 50 0
  71 0036 DA6C     		ldr	r2, [r3, #76]
  72 0038 42F00102 		orr	r2, r2, #1
  73 003c DA64     		str	r2, [r3, #76]
  74 003e DA6C     		ldr	r2, [r3, #76]
  75 0040 02F00102 		and	r2, r2, #1
  76 0044 0392     		str	r2, [sp, #12]
  77 0046 039A     		ldr	r2, [sp, #12]
  78              	.LBE4:
  79              	.LBB5:
  51:HAL/gpio.c    ****   __HAL_RCC_GPIOB_CLK_ENABLE();
  80              		.loc 1 51 0
  81 0048 DA6C     		ldr	r2, [r3, #76]
  82 004a 42F00202 		orr	r2, r2, #2
  83 004e DA64     		str	r2, [r3, #76]
  84 0050 DB6C     		ldr	r3, [r3, #76]
  85 0052 03F00203 		and	r3, r3, #2
  86 0056 0493     		str	r3, [sp, #16]
  87 0058 049B     		ldr	r3, [sp, #16]
  88              	.LBE5:
  52:HAL/gpio.c    **** 
  53:HAL/gpio.c    ****   /*Configure GPIO pin Output Level */
  54:HAL/gpio.c    ****   HAL_GPIO_WritePin(GPIOA, GPIO_PIN_4|GPIO_PIN_5|GPIO_PIN_8, GPIO_PIN_RESET);
  89              		.loc 1 54 0
  90 005a 2246     		mov	r2, r4
  91 005c 4FF49871 		mov	r1, #304
  92 0060 4FF09040 		mov	r0, #1207959552
  93 0064 FFF7FEFF 		bl	HAL_GPIO_WritePin
  94              	.LVL0:
  55:HAL/gpio.c    **** 
  56:HAL/gpio.c    ****   /*Configure GPIO pins : PC14 PC15 */
  57:HAL/gpio.c    ****   GPIO_InitStruct.Pin = GPIO_PIN_14|GPIO_PIN_15;
  95              		.loc 1 57 0
  96 0068 4FF44043 		mov	r3, #49152
  97 006c 0593     		str	r3, [sp, #20]
  58:HAL/gpio.c    ****   GPIO_InitStruct.Mode = GPIO_MODE_ANALOG;
  98              		.loc 1 58 0
  99 006e 0325     		movs	r5, #3
 100 0070 0695     		str	r5, [sp, #24]
  59:HAL/gpio.c    ****   GPIO_InitStruct.Pull = GPIO_NOPULL;
 101              		.loc 1 59 0
 102 0072 0794     		str	r4, [sp, #28]
  60:HAL/gpio.c    ****   HAL_GPIO_Init(GPIOC, &GPIO_InitStruct);
 103              		.loc 1 60 0
 104 0074 05A9     		add	r1, sp, #20
 105 0076 1748     		ldr	r0, .L3+4
 106 0078 FFF7FEFF 		bl	HAL_GPIO_Init
 107              	.LVL1:
  61:HAL/gpio.c    **** 
  62:HAL/gpio.c    ****   /*Configure GPIO pins : PA0 PA1 PA11 PA12 */
  63:HAL/gpio.c    ****   GPIO_InitStruct.Pin = GPIO_PIN_0|GPIO_PIN_1|GPIO_PIN_11|GPIO_PIN_12;
 108              		.loc 1 63 0
 109 007c 41F60303 		movw	r3, #6147
ARM GAS  /tmp/ccXpwCvt.s 			page 4


 110 0080 0593     		str	r3, [sp, #20]
  64:HAL/gpio.c    ****   GPIO_InitStruct.Mode = GPIO_MODE_ANALOG;
 111              		.loc 1 64 0
 112 0082 0695     		str	r5, [sp, #24]
  65:HAL/gpio.c    ****   GPIO_InitStruct.Pull = GPIO_NOPULL;
 113              		.loc 1 65 0
 114 0084 0794     		str	r4, [sp, #28]
  66:HAL/gpio.c    ****   HAL_GPIO_Init(GPIOA, &GPIO_InitStruct);
 115              		.loc 1 66 0
 116 0086 05A9     		add	r1, sp, #20
 117 0088 4FF09040 		mov	r0, #1207959552
 118 008c FFF7FEFF 		bl	HAL_GPIO_Init
 119              	.LVL2:
  67:HAL/gpio.c    **** 
  68:HAL/gpio.c    ****   /*Configure GPIO pins : PA4 PA5 PA8 */
  69:HAL/gpio.c    ****   GPIO_InitStruct.Pin = GPIO_PIN_4|GPIO_PIN_5|GPIO_PIN_8;
 120              		.loc 1 69 0
 121 0090 4FF49873 		mov	r3, #304
 122 0094 0593     		str	r3, [sp, #20]
  70:HAL/gpio.c    ****   GPIO_InitStruct.Mode = GPIO_MODE_OUTPUT_PP;
 123              		.loc 1 70 0
 124 0096 0123     		movs	r3, #1
 125 0098 0693     		str	r3, [sp, #24]
  71:HAL/gpio.c    ****   GPIO_InitStruct.Pull = GPIO_NOPULL;
 126              		.loc 1 71 0
 127 009a 0794     		str	r4, [sp, #28]
  72:HAL/gpio.c    ****   GPIO_InitStruct.Speed = GPIO_SPEED_FREQ_LOW;
 128              		.loc 1 72 0
 129 009c 0894     		str	r4, [sp, #32]
  73:HAL/gpio.c    ****   HAL_GPIO_Init(GPIOA, &GPIO_InitStruct);
 130              		.loc 1 73 0
 131 009e 05A9     		add	r1, sp, #20
 132 00a0 4FF09040 		mov	r0, #1207959552
 133 00a4 FFF7FEFF 		bl	HAL_GPIO_Init
 134              	.LVL3:
  74:HAL/gpio.c    **** 
  75:HAL/gpio.c    ****   /*Configure GPIO pins : PB2 PB4 PB8 PB9 */
  76:HAL/gpio.c    ****   GPIO_InitStruct.Pin = GPIO_PIN_2|GPIO_PIN_4|GPIO_PIN_8|GPIO_PIN_9;
 135              		.loc 1 76 0
 136 00a8 4FF44573 		mov	r3, #788
 137 00ac 0593     		str	r3, [sp, #20]
  77:HAL/gpio.c    ****   GPIO_InitStruct.Mode = GPIO_MODE_ANALOG;
 138              		.loc 1 77 0
 139 00ae 0695     		str	r5, [sp, #24]
  78:HAL/gpio.c    ****   GPIO_InitStruct.Pull = GPIO_NOPULL;
 140              		.loc 1 78 0
 141 00b0 0794     		str	r4, [sp, #28]
  79:HAL/gpio.c    ****   HAL_GPIO_Init(GPIOB, &GPIO_InitStruct);
 142              		.loc 1 79 0
 143 00b2 05A9     		add	r1, sp, #20
 144 00b4 0848     		ldr	r0, .L3+8
 145 00b6 FFF7FEFF 		bl	HAL_GPIO_Init
 146              	.LVL4:
  80:HAL/gpio.c    **** 
  81:HAL/gpio.c    ****   /*Configure GPIO pin : PH3 */
  82:HAL/gpio.c    ****   GPIO_InitStruct.Pin = GPIO_PIN_3;
 147              		.loc 1 82 0
ARM GAS  /tmp/ccXpwCvt.s 			page 5


 148 00ba 0823     		movs	r3, #8
 149 00bc 0593     		str	r3, [sp, #20]
  83:HAL/gpio.c    ****   GPIO_InitStruct.Mode = GPIO_MODE_IT_RISING;
 150              		.loc 1 83 0
 151 00be 074B     		ldr	r3, .L3+12
 152 00c0 0693     		str	r3, [sp, #24]
  84:HAL/gpio.c    ****   GPIO_InitStruct.Pull = GPIO_NOPULL;
 153              		.loc 1 84 0
 154 00c2 0794     		str	r4, [sp, #28]
  85:HAL/gpio.c    ****   HAL_GPIO_Init(GPIOH, &GPIO_InitStruct);
 155              		.loc 1 85 0
 156 00c4 05A9     		add	r1, sp, #20
 157 00c6 0648     		ldr	r0, .L3+16
 158 00c8 FFF7FEFF 		bl	HAL_GPIO_Init
 159              	.LVL5:
  86:HAL/gpio.c    **** 
  87:HAL/gpio.c    **** }
 160              		.loc 1 87 0
 161 00cc 0BB0     		add	sp, sp, #44
 162              	.LCFI2:
 163              		.cfi_def_cfa_offset 12
 164              		@ sp needed
 165 00ce 30BD     		pop	{r4, r5, pc}
 166              	.L4:
 167              		.align	2
 168              	.L3:
 169 00d0 00100240 		.word	1073876992
 170 00d4 00080048 		.word	1207961600
 171 00d8 00040048 		.word	1207960576
 172 00dc 00001110 		.word	269549568
 173 00e0 001C0048 		.word	1207966720
 174              		.cfi_endproc
 175              	.LFE284:
 177              		.text
 178              	.Letext0:
 179              		.file 2 "/usr/include/newlib/machine/_default_types.h"
 180              		.file 3 "/usr/include/newlib/sys/_stdint.h"
 181              		.file 4 "Drivers/CMSIS/Include/core_cm4.h"
 182              		.file 5 "Drivers/CMSIS/Device/ST/STM32L4xx/Include/system_stm32l4xx.h"
 183              		.file 6 "Drivers/CMSIS/Device/ST/STM32L4xx/Include/stm32l433xx.h"
 184              		.file 7 "Drivers/STM32L4xx_HAL_Driver/Inc/stm32l4xx_hal_def.h"
 185              		.file 8 "Drivers/STM32L4xx_HAL_Driver/Inc/stm32l4xx_hal_gpio.h"
 186              		.file 9 "Drivers/STM32L4xx_HAL_Driver/Inc/stm32l4xx_hal_flash.h"
 187              		.file 10 "Drivers/STM32L4xx_HAL_Driver/Inc/stm32l4xx_hal.h"
ARM GAS  /tmp/ccXpwCvt.s 			page 6

