ARM GAS  /tmp/ccmNVJQ5.s 			page 1


   1              		.cpu cortex-m4
   2              		.eabi_attribute 27, 1
   3              		.eabi_attribute 28, 1
   4              		.eabi_attribute 20, 1
   5              		.eabi_attribute 21, 1
   6              		.eabi_attribute 23, 3
   7              		.eabi_attribute 24, 1
   8              		.eabi_attribute 25, 1
   9              		.eabi_attribute 26, 1
  10              		.eabi_attribute 30, 1
  11              		.eabi_attribute 34, 1
  12              		.eabi_attribute 18, 4
  13              		.file	"i2c.c"
  14              		.text
  15              	.Ltext0:
  16              		.cfi_sections	.debug_frame
  17              		.section	.text.MX_I2C1_Init,"ax",%progbits
  18              		.align	1
  19              		.global	MX_I2C1_Init
  20              		.syntax unified
  21              		.thumb
  22              		.thumb_func
  23              		.fpu fpv4-sp-d16
  25              	MX_I2C1_Init:
  26              	.LFB284:
  27              		.file 1 "HAL/i2c.c"
   1:HAL/i2c.c     **** /**
   2:HAL/i2c.c     ****   ******************************************************************************
   3:HAL/i2c.c     ****   * File Name          : I2C.c
   4:HAL/i2c.c     ****   * Description        : This file provides code for the configuration
   5:HAL/i2c.c     ****   *                      of the I2C instances.
   6:HAL/i2c.c     ****   ******************************************************************************
   7:HAL/i2c.c     ****   * @attention
   8:HAL/i2c.c     ****   *
   9:HAL/i2c.c     ****   * <h2><center>&copy; Copyright (c) 2019 STMicroelectronics.
  10:HAL/i2c.c     ****   * All rights reserved.</center></h2>
  11:HAL/i2c.c     ****   *
  12:HAL/i2c.c     ****   * This software component is licensed by ST under BSD 3-Clause license,
  13:HAL/i2c.c     ****   * the "License"; You may not use this file except in compliance with the
  14:HAL/i2c.c     ****   * License. You may obtain a copy of the License at:
  15:HAL/i2c.c     ****   *                        opensource.org/licenses/BSD-3-Clause
  16:HAL/i2c.c     ****   *
  17:HAL/i2c.c     ****   ******************************************************************************
  18:HAL/i2c.c     ****   */
  19:HAL/i2c.c     **** 
  20:HAL/i2c.c     **** /* Includes ------------------------------------------------------------------*/
  21:HAL/i2c.c     **** #include "i2c.h"
  22:HAL/i2c.c     **** 
  23:HAL/i2c.c     **** /* USER CODE BEGIN 0 */
  24:HAL/i2c.c     **** 
  25:HAL/i2c.c     **** /* USER CODE END 0 */
  26:HAL/i2c.c     **** 
  27:HAL/i2c.c     **** I2C_HandleTypeDef hi2c1;
  28:HAL/i2c.c     **** 
  29:HAL/i2c.c     **** /* I2C1 init function */
  30:HAL/i2c.c     **** void MX_I2C1_Init(void)
  31:HAL/i2c.c     **** {
ARM GAS  /tmp/ccmNVJQ5.s 			page 2


  28              		.loc 1 31 0
  29              		.cfi_startproc
  30              		@ args = 0, pretend = 0, frame = 0
  31              		@ frame_needed = 0, uses_anonymous_args = 0
  32 0000 08B5     		push	{r3, lr}
  33              	.LCFI0:
  34              		.cfi_def_cfa_offset 8
  35              		.cfi_offset 3, -8
  36              		.cfi_offset 14, -4
  32:HAL/i2c.c     **** 
  33:HAL/i2c.c     ****   hi2c1.Instance = I2C1;
  37              		.loc 1 33 0
  38 0002 1548     		ldr	r0, .L9
  39 0004 154B     		ldr	r3, .L9+4
  40 0006 0360     		str	r3, [r0]
  34:HAL/i2c.c     ****   hi2c1.Init.Timing = 0x10707DBC;
  41              		.loc 1 34 0
  42 0008 A3F13E53 		sub	r3, r3, #796917760
  43 000c A3F57D23 		sub	r3, r3, #1036288
  44 0010 A3F24463 		subw	r3, r3, #1604
  45 0014 4360     		str	r3, [r0, #4]
  35:HAL/i2c.c     ****   hi2c1.Init.OwnAddress1 = 0;
  46              		.loc 1 35 0
  47 0016 0023     		movs	r3, #0
  48 0018 8360     		str	r3, [r0, #8]
  36:HAL/i2c.c     ****   hi2c1.Init.AddressingMode = I2C_ADDRESSINGMODE_7BIT;
  49              		.loc 1 36 0
  50 001a 0122     		movs	r2, #1
  51 001c C260     		str	r2, [r0, #12]
  37:HAL/i2c.c     ****   hi2c1.Init.DualAddressMode = I2C_DUALADDRESS_DISABLE;
  52              		.loc 1 37 0
  53 001e 0361     		str	r3, [r0, #16]
  38:HAL/i2c.c     ****   hi2c1.Init.OwnAddress2 = 0;
  54              		.loc 1 38 0
  55 0020 4361     		str	r3, [r0, #20]
  39:HAL/i2c.c     ****   hi2c1.Init.OwnAddress2Masks = I2C_OA2_NOMASK;
  56              		.loc 1 39 0
  57 0022 8361     		str	r3, [r0, #24]
  40:HAL/i2c.c     ****   hi2c1.Init.GeneralCallMode = I2C_GENERALCALL_DISABLE;
  58              		.loc 1 40 0
  59 0024 C361     		str	r3, [r0, #28]
  41:HAL/i2c.c     ****   hi2c1.Init.NoStretchMode = I2C_NOSTRETCH_DISABLE;
  60              		.loc 1 41 0
  61 0026 0362     		str	r3, [r0, #32]
  42:HAL/i2c.c     ****   if (HAL_I2C_Init(&hi2c1) != HAL_OK)
  62              		.loc 1 42 0
  63 0028 FFF7FEFF 		bl	HAL_I2C_Init
  64              	.LVL0:
  65 002c 50B9     		cbnz	r0, .L6
  66              	.L2:
  43:HAL/i2c.c     ****   {
  44:HAL/i2c.c     ****     Error_Handler();
  45:HAL/i2c.c     ****   }
  46:HAL/i2c.c     ****   /** Configure Analogue filter 
  47:HAL/i2c.c     ****   */
  48:HAL/i2c.c     ****   if (HAL_I2CEx_ConfigAnalogFilter(&hi2c1, I2C_ANALOGFILTER_ENABLE) != HAL_OK)
  67              		.loc 1 48 0
ARM GAS  /tmp/ccmNVJQ5.s 			page 3


  68 002e 0021     		movs	r1, #0
  69 0030 0948     		ldr	r0, .L9
  70 0032 FFF7FEFF 		bl	HAL_I2CEx_ConfigAnalogFilter
  71              	.LVL1:
  72 0036 40B9     		cbnz	r0, .L7
  73              	.L3:
  49:HAL/i2c.c     ****   {
  50:HAL/i2c.c     ****     Error_Handler();
  51:HAL/i2c.c     ****   }
  52:HAL/i2c.c     ****   /** Configure Digital filter 
  53:HAL/i2c.c     ****   */
  54:HAL/i2c.c     ****   if (HAL_I2CEx_ConfigDigitalFilter(&hi2c1, 0) != HAL_OK)
  74              		.loc 1 54 0
  75 0038 0021     		movs	r1, #0
  76 003a 0748     		ldr	r0, .L9
  77 003c FFF7FEFF 		bl	HAL_I2CEx_ConfigDigitalFilter
  78              	.LVL2:
  79 0040 30B9     		cbnz	r0, .L8
  80              	.L1:
  81 0042 08BD     		pop	{r3, pc}
  82              	.L6:
  44:HAL/i2c.c     ****   }
  83              		.loc 1 44 0
  84 0044 FFF7FEFF 		bl	Error_Handler
  85              	.LVL3:
  86 0048 F1E7     		b	.L2
  87              	.L7:
  50:HAL/i2c.c     ****   }
  88              		.loc 1 50 0
  89 004a FFF7FEFF 		bl	Error_Handler
  90              	.LVL4:
  91 004e F3E7     		b	.L3
  92              	.L8:
  55:HAL/i2c.c     ****   {
  56:HAL/i2c.c     ****     Error_Handler();
  93              		.loc 1 56 0
  94 0050 FFF7FEFF 		bl	Error_Handler
  95              	.LVL5:
  57:HAL/i2c.c     ****   }
  58:HAL/i2c.c     **** 
  59:HAL/i2c.c     **** }
  96              		.loc 1 59 0
  97 0054 F5E7     		b	.L1
  98              	.L10:
  99 0056 00BF     		.align	2
 100              	.L9:
 101 0058 00000000 		.word	hi2c1
 102 005c 00540040 		.word	1073763328
 103              		.cfi_endproc
 104              	.LFE284:
 106              		.section	.text.HAL_I2C_MspInit,"ax",%progbits
 107              		.align	1
 108              		.global	HAL_I2C_MspInit
 109              		.syntax unified
 110              		.thumb
 111              		.thumb_func
 112              		.fpu fpv4-sp-d16
ARM GAS  /tmp/ccmNVJQ5.s 			page 4


 114              	HAL_I2C_MspInit:
 115              	.LFB285:
  60:HAL/i2c.c     **** 
  61:HAL/i2c.c     **** void HAL_I2C_MspInit(I2C_HandleTypeDef* i2cHandle)
  62:HAL/i2c.c     **** {
 116              		.loc 1 62 0
 117              		.cfi_startproc
 118              		@ args = 0, pretend = 0, frame = 32
 119              		@ frame_needed = 0, uses_anonymous_args = 0
 120              	.LVL6:
 121 0000 10B5     		push	{r4, lr}
 122              	.LCFI1:
 123              		.cfi_def_cfa_offset 8
 124              		.cfi_offset 4, -8
 125              		.cfi_offset 14, -4
 126 0002 88B0     		sub	sp, sp, #32
 127              	.LCFI2:
 128              		.cfi_def_cfa_offset 40
  63:HAL/i2c.c     **** 
  64:HAL/i2c.c     ****   GPIO_InitTypeDef GPIO_InitStruct = {0};
 129              		.loc 1 64 0
 130 0004 0023     		movs	r3, #0
 131 0006 0393     		str	r3, [sp, #12]
 132 0008 0493     		str	r3, [sp, #16]
 133 000a 0593     		str	r3, [sp, #20]
 134 000c 0693     		str	r3, [sp, #24]
 135 000e 0793     		str	r3, [sp, #28]
  65:HAL/i2c.c     ****   if(i2cHandle->Instance==I2C1)
 136              		.loc 1 65 0
 137 0010 0268     		ldr	r2, [r0]
 138 0012 134B     		ldr	r3, .L15
 139 0014 9A42     		cmp	r2, r3
 140 0016 01D0     		beq	.L14
 141              	.LVL7:
 142              	.L11:
  66:HAL/i2c.c     ****   {
  67:HAL/i2c.c     ****   /* USER CODE BEGIN I2C1_MspInit 0 */
  68:HAL/i2c.c     **** 
  69:HAL/i2c.c     ****   /* USER CODE END I2C1_MspInit 0 */
  70:HAL/i2c.c     ****   
  71:HAL/i2c.c     ****     __HAL_RCC_GPIOB_CLK_ENABLE();
  72:HAL/i2c.c     ****     /**I2C1 GPIO Configuration    
  73:HAL/i2c.c     ****     PB6     ------> I2C1_SCL
  74:HAL/i2c.c     ****     PB7     ------> I2C1_SDA 
  75:HAL/i2c.c     ****     */
  76:HAL/i2c.c     ****     GPIO_InitStruct.Pin = GPIO_PIN_6|GPIO_PIN_7;
  77:HAL/i2c.c     ****     GPIO_InitStruct.Mode = GPIO_MODE_AF_OD;
  78:HAL/i2c.c     ****     GPIO_InitStruct.Pull = GPIO_PULLUP;
  79:HAL/i2c.c     ****     GPIO_InitStruct.Speed = GPIO_SPEED_FREQ_VERY_HIGH;
  80:HAL/i2c.c     ****     GPIO_InitStruct.Alternate = GPIO_AF4_I2C1;
  81:HAL/i2c.c     ****     HAL_GPIO_Init(GPIOB, &GPIO_InitStruct);
  82:HAL/i2c.c     **** 
  83:HAL/i2c.c     ****     /* I2C1 clock enable */
  84:HAL/i2c.c     ****     __HAL_RCC_I2C1_CLK_ENABLE();
  85:HAL/i2c.c     ****   /* USER CODE BEGIN I2C1_MspInit 1 */
  86:HAL/i2c.c     **** 
  87:HAL/i2c.c     ****   /* USER CODE END I2C1_MspInit 1 */
ARM GAS  /tmp/ccmNVJQ5.s 			page 5


  88:HAL/i2c.c     ****   }
  89:HAL/i2c.c     **** }
 143              		.loc 1 89 0
 144 0018 08B0     		add	sp, sp, #32
 145              	.LCFI3:
 146              		.cfi_remember_state
 147              		.cfi_def_cfa_offset 8
 148              		@ sp needed
 149 001a 10BD     		pop	{r4, pc}
 150              	.LVL8:
 151              	.L14:
 152              	.LCFI4:
 153              		.cfi_restore_state
 154              	.LBB2:
  71:HAL/i2c.c     ****     /**I2C1 GPIO Configuration    
 155              		.loc 1 71 0
 156 001c 114C     		ldr	r4, .L15+4
 157 001e E36C     		ldr	r3, [r4, #76]
 158 0020 43F00203 		orr	r3, r3, #2
 159 0024 E364     		str	r3, [r4, #76]
 160 0026 E36C     		ldr	r3, [r4, #76]
 161 0028 03F00203 		and	r3, r3, #2
 162 002c 0193     		str	r3, [sp, #4]
 163 002e 019B     		ldr	r3, [sp, #4]
 164              	.LBE2:
  76:HAL/i2c.c     ****     GPIO_InitStruct.Mode = GPIO_MODE_AF_OD;
 165              		.loc 1 76 0
 166 0030 C023     		movs	r3, #192
 167 0032 0393     		str	r3, [sp, #12]
  77:HAL/i2c.c     ****     GPIO_InitStruct.Pull = GPIO_PULLUP;
 168              		.loc 1 77 0
 169 0034 1223     		movs	r3, #18
 170 0036 0493     		str	r3, [sp, #16]
  78:HAL/i2c.c     ****     GPIO_InitStruct.Speed = GPIO_SPEED_FREQ_VERY_HIGH;
 171              		.loc 1 78 0
 172 0038 0123     		movs	r3, #1
 173 003a 0593     		str	r3, [sp, #20]
  79:HAL/i2c.c     ****     GPIO_InitStruct.Alternate = GPIO_AF4_I2C1;
 174              		.loc 1 79 0
 175 003c 0323     		movs	r3, #3
 176 003e 0693     		str	r3, [sp, #24]
  80:HAL/i2c.c     ****     HAL_GPIO_Init(GPIOB, &GPIO_InitStruct);
 177              		.loc 1 80 0
 178 0040 0423     		movs	r3, #4
 179 0042 0793     		str	r3, [sp, #28]
  81:HAL/i2c.c     **** 
 180              		.loc 1 81 0
 181 0044 03A9     		add	r1, sp, #12
 182 0046 0848     		ldr	r0, .L15+8
 183              	.LVL9:
 184 0048 FFF7FEFF 		bl	HAL_GPIO_Init
 185              	.LVL10:
 186              	.LBB3:
  84:HAL/i2c.c     ****   /* USER CODE BEGIN I2C1_MspInit 1 */
 187              		.loc 1 84 0
 188 004c A36D     		ldr	r3, [r4, #88]
 189 004e 43F40013 		orr	r3, r3, #2097152
ARM GAS  /tmp/ccmNVJQ5.s 			page 6


 190 0052 A365     		str	r3, [r4, #88]
 191 0054 A36D     		ldr	r3, [r4, #88]
 192 0056 03F40013 		and	r3, r3, #2097152
 193 005a 0293     		str	r3, [sp, #8]
 194 005c 029B     		ldr	r3, [sp, #8]
 195              	.LBE3:
 196              		.loc 1 89 0
 197 005e DBE7     		b	.L11
 198              	.L16:
 199              		.align	2
 200              	.L15:
 201 0060 00540040 		.word	1073763328
 202 0064 00100240 		.word	1073876992
 203 0068 00040048 		.word	1207960576
 204              		.cfi_endproc
 205              	.LFE285:
 207              		.section	.text.HAL_I2C_MspDeInit,"ax",%progbits
 208              		.align	1
 209              		.global	HAL_I2C_MspDeInit
 210              		.syntax unified
 211              		.thumb
 212              		.thumb_func
 213              		.fpu fpv4-sp-d16
 215              	HAL_I2C_MspDeInit:
 216              	.LFB286:
  90:HAL/i2c.c     **** 
  91:HAL/i2c.c     **** void HAL_I2C_MspDeInit(I2C_HandleTypeDef* i2cHandle)
  92:HAL/i2c.c     **** {
 217              		.loc 1 92 0
 218              		.cfi_startproc
 219              		@ args = 0, pretend = 0, frame = 0
 220              		@ frame_needed = 0, uses_anonymous_args = 0
 221              	.LVL11:
 222 0000 08B5     		push	{r3, lr}
 223              	.LCFI5:
 224              		.cfi_def_cfa_offset 8
 225              		.cfi_offset 3, -8
 226              		.cfi_offset 14, -4
  93:HAL/i2c.c     **** 
  94:HAL/i2c.c     ****   if(i2cHandle->Instance==I2C1)
 227              		.loc 1 94 0
 228 0002 0268     		ldr	r2, [r0]
 229 0004 064B     		ldr	r3, .L21
 230 0006 9A42     		cmp	r2, r3
 231 0008 00D0     		beq	.L20
 232              	.LVL12:
 233              	.L17:
 234 000a 08BD     		pop	{r3, pc}
 235              	.LVL13:
 236              	.L20:
  95:HAL/i2c.c     ****   {
  96:HAL/i2c.c     ****   /* USER CODE BEGIN I2C1_MspDeInit 0 */
  97:HAL/i2c.c     **** 
  98:HAL/i2c.c     ****   /* USER CODE END I2C1_MspDeInit 0 */
  99:HAL/i2c.c     ****     /* Peripheral clock disable */
 100:HAL/i2c.c     ****     __HAL_RCC_I2C1_CLK_DISABLE();
 237              		.loc 1 100 0
ARM GAS  /tmp/ccmNVJQ5.s 			page 7


 238 000c 054A     		ldr	r2, .L21+4
 239 000e 936D     		ldr	r3, [r2, #88]
 240 0010 23F40013 		bic	r3, r3, #2097152
 241 0014 9365     		str	r3, [r2, #88]
 101:HAL/i2c.c     ****   
 102:HAL/i2c.c     ****     /**I2C1 GPIO Configuration    
 103:HAL/i2c.c     ****     PB6     ------> I2C1_SCL
 104:HAL/i2c.c     ****     PB7     ------> I2C1_SDA 
 105:HAL/i2c.c     ****     */
 106:HAL/i2c.c     ****     HAL_GPIO_DeInit(GPIOB, GPIO_PIN_6|GPIO_PIN_7);
 242              		.loc 1 106 0
 243 0016 C021     		movs	r1, #192
 244 0018 0348     		ldr	r0, .L21+8
 245              	.LVL14:
 246 001a FFF7FEFF 		bl	HAL_GPIO_DeInit
 247              	.LVL15:
 107:HAL/i2c.c     **** 
 108:HAL/i2c.c     ****   /* USER CODE BEGIN I2C1_MspDeInit 1 */
 109:HAL/i2c.c     **** 
 110:HAL/i2c.c     ****   /* USER CODE END I2C1_MspDeInit 1 */
 111:HAL/i2c.c     ****   }
 112:HAL/i2c.c     **** } 
 248              		.loc 1 112 0
 249 001e F4E7     		b	.L17
 250              	.L22:
 251              		.align	2
 252              	.L21:
 253 0020 00540040 		.word	1073763328
 254 0024 00100240 		.word	1073876992
 255 0028 00040048 		.word	1207960576
 256              		.cfi_endproc
 257              	.LFE286:
 259              		.comm	hi2c1,76,4
 260              		.text
 261              	.Letext0:
 262              		.file 2 "/usr/include/newlib/machine/_default_types.h"
 263              		.file 3 "/usr/include/newlib/sys/_stdint.h"
 264              		.file 4 "Drivers/CMSIS/Include/core_cm4.h"
 265              		.file 5 "Drivers/CMSIS/Device/ST/STM32L4xx/Include/system_stm32l4xx.h"
 266              		.file 6 "Drivers/CMSIS/Device/ST/STM32L4xx/Include/stm32l433xx.h"
 267              		.file 7 "Drivers/STM32L4xx_HAL_Driver/Inc/stm32l4xx_hal_def.h"
 268              		.file 8 "Drivers/STM32L4xx_HAL_Driver/Inc/stm32l4xx_hal_gpio.h"
 269              		.file 9 "Drivers/STM32L4xx_HAL_Driver/Inc/stm32l4xx_hal_dma.h"
 270              		.file 10 "Drivers/STM32L4xx_HAL_Driver/Inc/stm32l4xx_hal_flash.h"
 271              		.file 11 "Drivers/STM32L4xx_HAL_Driver/Inc/stm32l4xx_hal_i2c.h"
 272              		.file 12 "Drivers/STM32L4xx_HAL_Driver/Inc/stm32l4xx_hal.h"
 273              		.file 13 "Inc/i2c.h"
 274              		.file 14 "Drivers/STM32L4xx_HAL_Driver/Inc/stm32l4xx_hal_i2c_ex.h"
 275              		.file 15 "Inc/main.h"
ARM GAS  /tmp/ccmNVJQ5.s 			page 8

