ARM GAS  /tmp/ccQWuEqp.s 			page 1


   1              		.cpu cortex-m4
   2              		.eabi_attribute 27, 1
   3              		.eabi_attribute 28, 1
   4              		.eabi_attribute 20, 1
   5              		.eabi_attribute 21, 1
   6              		.eabi_attribute 23, 3
   7              		.eabi_attribute 24, 1
   8              		.eabi_attribute 25, 1
   9              		.eabi_attribute 26, 1
  10              		.eabi_attribute 30, 1
  11              		.eabi_attribute 34, 1
  12              		.eabi_attribute 18, 4
  13              		.file	"sai.c"
  14              		.text
  15              	.Ltext0:
  16              		.cfi_sections	.debug_frame
  17              		.section	.text.MX_SAI1_Init,"ax",%progbits
  18              		.align	1
  19              		.global	MX_SAI1_Init
  20              		.syntax unified
  21              		.thumb
  22              		.thumb_func
  23              		.fpu fpv4-sp-d16
  25              	MX_SAI1_Init:
  26              	.LFB284:
  27              		.file 1 "HAL/sai.c"
   1:HAL/sai.c     **** /**
   2:HAL/sai.c     ****   ******************************************************************************
   3:HAL/sai.c     ****   * File Name          : SAI.c
   4:HAL/sai.c     ****   * Description        : This file provides code for the configuration
   5:HAL/sai.c     ****   *                      of the SAI instances.
   6:HAL/sai.c     ****   ******************************************************************************
   7:HAL/sai.c     ****   * @attention
   8:HAL/sai.c     ****   *
   9:HAL/sai.c     ****   * <h2><center>&copy; Copyright (c) 2019 STMicroelectronics.
  10:HAL/sai.c     ****   * All rights reserved.</center></h2>
  11:HAL/sai.c     ****   *
  12:HAL/sai.c     ****   * This software component is licensed by ST under BSD 3-Clause license,
  13:HAL/sai.c     ****   * the "License"; You may not use this file except in compliance with the
  14:HAL/sai.c     ****   * License. You may obtain a copy of the License at:
  15:HAL/sai.c     ****   *                        opensource.org/licenses/BSD-3-Clause
  16:HAL/sai.c     ****   *
  17:HAL/sai.c     ****   ******************************************************************************
  18:HAL/sai.c     ****   */
  19:HAL/sai.c     **** /* Includes ------------------------------------------------------------------*/
  20:HAL/sai.c     **** #include "sai.h"
  21:HAL/sai.c     **** 
  22:HAL/sai.c     **** #include "gpio.h"
  23:HAL/sai.c     **** 
  24:HAL/sai.c     **** /* USER CODE BEGIN 0 */
  25:HAL/sai.c     **** 
  26:HAL/sai.c     **** /* USER CODE END 0 */
  27:HAL/sai.c     **** 
  28:HAL/sai.c     **** SAI_HandleTypeDef hsai_BlockA1;
  29:HAL/sai.c     **** 
  30:HAL/sai.c     **** /* SAI1 init function */
  31:HAL/sai.c     **** void MX_SAI1_Init(void)
ARM GAS  /tmp/ccQWuEqp.s 			page 2


  32:HAL/sai.c     **** {
  28              		.loc 1 32 0
  29              		.cfi_startproc
  30              		@ args = 0, pretend = 0, frame = 0
  31              		@ frame_needed = 0, uses_anonymous_args = 0
  32 0000 08B5     		push	{r3, lr}
  33              	.LCFI0:
  34              		.cfi_def_cfa_offset 8
  35              		.cfi_offset 3, -8
  36              		.cfi_offset 14, -4
  33:HAL/sai.c     **** 
  34:HAL/sai.c     ****   hsai_BlockA1.Instance = SAI1_Block_A;
  37              		.loc 1 34 0
  38 0002 0C48     		ldr	r0, .L5
  39 0004 0C4B     		ldr	r3, .L5+4
  40 0006 0360     		str	r3, [r0]
  35:HAL/sai.c     ****   hsai_BlockA1.Init.AudioMode = SAI_MODEMASTER_TX;
  41              		.loc 1 35 0
  42 0008 0021     		movs	r1, #0
  43 000a 4160     		str	r1, [r0, #4]
  36:HAL/sai.c     ****   hsai_BlockA1.Init.Synchro = SAI_ASYNCHRONOUS;
  44              		.loc 1 36 0
  45 000c 8160     		str	r1, [r0, #8]
  37:HAL/sai.c     ****   hsai_BlockA1.Init.OutputDrive = SAI_OUTPUTDRIVE_DISABLE;
  46              		.loc 1 37 0
  47 000e 0161     		str	r1, [r0, #16]
  38:HAL/sai.c     ****   hsai_BlockA1.Init.NoDivider = SAI_MASTERDIVIDER_ENABLE;
  48              		.loc 1 38 0
  49 0010 4161     		str	r1, [r0, #20]
  39:HAL/sai.c     ****   hsai_BlockA1.Init.FIFOThreshold = SAI_FIFOTHRESHOLD_EMPTY;
  50              		.loc 1 39 0
  51 0012 8161     		str	r1, [r0, #24]
  40:HAL/sai.c     ****   hsai_BlockA1.Init.AudioFrequency = SAI_AUDIO_FREQUENCY_192K;
  52              		.loc 1 40 0
  53 0014 094B     		ldr	r3, .L5+8
  54 0016 C361     		str	r3, [r0, #28]
  41:HAL/sai.c     ****   hsai_BlockA1.Init.SynchroExt = SAI_SYNCEXT_DISABLE;
  55              		.loc 1 41 0
  56 0018 C160     		str	r1, [r0, #12]
  42:HAL/sai.c     ****   hsai_BlockA1.Init.MonoStereoMode = SAI_STEREOMODE;
  57              		.loc 1 42 0
  58 001a 4162     		str	r1, [r0, #36]
  43:HAL/sai.c     ****   hsai_BlockA1.Init.CompandingMode = SAI_NOCOMPANDING;
  59              		.loc 1 43 0
  60 001c 8162     		str	r1, [r0, #40]
  44:HAL/sai.c     ****   hsai_BlockA1.Init.TriState = SAI_OUTPUT_NOTRELEASED;
  61              		.loc 1 44 0
  62 001e C162     		str	r1, [r0, #44]
  45:HAL/sai.c     ****   if (HAL_SAI_InitProtocol(&hsai_BlockA1, SAI_I2S_STANDARD, SAI_PROTOCOL_DATASIZE_16BIT, 2) != HAL_
  63              		.loc 1 45 0
  64 0020 0223     		movs	r3, #2
  65 0022 0A46     		mov	r2, r1
  66 0024 FFF7FEFF 		bl	HAL_SAI_InitProtocol
  67              	.LVL0:
  68 0028 00B9     		cbnz	r0, .L4
  69              	.L1:
  70 002a 08BD     		pop	{r3, pc}
ARM GAS  /tmp/ccQWuEqp.s 			page 3


  71              	.L4:
  46:HAL/sai.c     ****   {
  47:HAL/sai.c     ****     Error_Handler();
  72              		.loc 1 47 0
  73 002c FFF7FEFF 		bl	Error_Handler
  74              	.LVL1:
  48:HAL/sai.c     ****   }
  49:HAL/sai.c     **** 
  50:HAL/sai.c     **** }
  75              		.loc 1 50 0
  76 0030 FBE7     		b	.L1
  77              	.L6:
  78 0032 00BF     		.align	2
  79              	.L5:
  80 0034 00000000 		.word	hsai_BlockA1
  81 0038 04540140 		.word	1073828868
  82 003c 00EE0200 		.word	192000
  83              		.cfi_endproc
  84              	.LFE284:
  86              		.section	.text.HAL_SAI_MspInit,"ax",%progbits
  87              		.align	1
  88              		.global	HAL_SAI_MspInit
  89              		.syntax unified
  90              		.thumb
  91              		.thumb_func
  92              		.fpu fpv4-sp-d16
  94              	HAL_SAI_MspInit:
  95              	.LFB285:
  51:HAL/sai.c     **** static uint32_t SAI1_client =0;
  52:HAL/sai.c     **** 
  53:HAL/sai.c     **** void HAL_SAI_MspInit(SAI_HandleTypeDef* hsai)
  54:HAL/sai.c     **** {
  96              		.loc 1 54 0
  97              		.cfi_startproc
  98              		@ args = 0, pretend = 0, frame = 24
  99              		@ frame_needed = 0, uses_anonymous_args = 0
 100              	.LVL2:
  55:HAL/sai.c     **** 
  56:HAL/sai.c     ****   GPIO_InitTypeDef GPIO_InitStruct;
  57:HAL/sai.c     **** /* SAI1 */
  58:HAL/sai.c     ****     if(hsai->Instance==SAI1_Block_A)
 101              		.loc 1 58 0
 102 0000 0268     		ldr	r2, [r0]
 103 0002 134B     		ldr	r3, .L15
 104 0004 9A42     		cmp	r2, r3
 105 0006 00D0     		beq	.L14
 106 0008 7047     		bx	lr
 107              	.L14:
  54:HAL/sai.c     **** 
 108              		.loc 1 54 0
 109 000a 00B5     		push	{lr}
 110              	.LCFI1:
 111              		.cfi_def_cfa_offset 4
 112              		.cfi_offset 14, -4
 113 000c 87B0     		sub	sp, sp, #28
 114              	.LCFI2:
 115              		.cfi_def_cfa_offset 32
ARM GAS  /tmp/ccQWuEqp.s 			page 4


  59:HAL/sai.c     ****     {
  60:HAL/sai.c     ****     /* SAI1 clock enable */
  61:HAL/sai.c     ****     if (SAI1_client == 0)
 116              		.loc 1 61 0
 117 000e 114B     		ldr	r3, .L15+4
 118 0010 1B68     		ldr	r3, [r3]
 119 0012 4BB9     		cbnz	r3, .L9
 120              	.LBB2:
  62:HAL/sai.c     ****     {
  63:HAL/sai.c     ****        __HAL_RCC_SAI1_CLK_ENABLE();
 121              		.loc 1 63 0
 122 0014 104A     		ldr	r2, .L15+8
 123 0016 116E     		ldr	r1, [r2, #96]
 124 0018 41F40011 		orr	r1, r1, #2097152
 125 001c 1166     		str	r1, [r2, #96]
 126 001e 126E     		ldr	r2, [r2, #96]
 127 0020 02F40012 		and	r2, r2, #2097152
 128 0024 0092     		str	r2, [sp]
 129 0026 009A     		ldr	r2, [sp]
 130              	.L9:
 131              	.LBE2:
  64:HAL/sai.c     ****     }
  65:HAL/sai.c     ****     SAI1_client ++;
 132              		.loc 1 65 0
 133 0028 0133     		adds	r3, r3, #1
 134 002a 0A4A     		ldr	r2, .L15+4
 135 002c 1360     		str	r3, [r2]
  66:HAL/sai.c     ****     
  67:HAL/sai.c     ****     /**SAI1_A_Block_A GPIO Configuration    
  68:HAL/sai.c     ****     PB12     ------> SAI1_FS_A
  69:HAL/sai.c     ****     PB13     ------> SAI1_SCK_A
  70:HAL/sai.c     ****     PB14     ------> SAI1_MCLK_A
  71:HAL/sai.c     ****     PB15     ------> SAI1_SD_A 
  72:HAL/sai.c     ****     */
  73:HAL/sai.c     ****     GPIO_InitStruct.Pin = GPIO_PIN_12|GPIO_PIN_13|GPIO_PIN_14|GPIO_PIN_15;
 136              		.loc 1 73 0
 137 002e 4FF47043 		mov	r3, #61440
 138 0032 0193     		str	r3, [sp, #4]
  74:HAL/sai.c     ****     GPIO_InitStruct.Mode = GPIO_MODE_AF_PP;
 139              		.loc 1 74 0
 140 0034 0223     		movs	r3, #2
 141 0036 0293     		str	r3, [sp, #8]
  75:HAL/sai.c     ****     GPIO_InitStruct.Pull = GPIO_NOPULL;
 142              		.loc 1 75 0
 143 0038 0023     		movs	r3, #0
 144 003a 0393     		str	r3, [sp, #12]
  76:HAL/sai.c     ****     GPIO_InitStruct.Speed = GPIO_SPEED_FREQ_LOW;
 145              		.loc 1 76 0
 146 003c 0493     		str	r3, [sp, #16]
  77:HAL/sai.c     ****     GPIO_InitStruct.Alternate = GPIO_AF13_SAI1;
 147              		.loc 1 77 0
 148 003e 0D23     		movs	r3, #13
 149 0040 0593     		str	r3, [sp, #20]
  78:HAL/sai.c     ****     HAL_GPIO_Init(GPIOB, &GPIO_InitStruct);
 150              		.loc 1 78 0
 151 0042 01A9     		add	r1, sp, #4
 152 0044 0548     		ldr	r0, .L15+12
ARM GAS  /tmp/ccQWuEqp.s 			page 5


 153              	.LVL3:
 154 0046 FFF7FEFF 		bl	HAL_GPIO_Init
 155              	.LVL4:
  79:HAL/sai.c     **** 
  80:HAL/sai.c     ****     }
  81:HAL/sai.c     **** }
 156              		.loc 1 81 0
 157 004a 07B0     		add	sp, sp, #28
 158              	.LCFI3:
 159              		.cfi_def_cfa_offset 4
 160              		@ sp needed
 161 004c 5DF804FB 		ldr	pc, [sp], #4
 162              	.L16:
 163              		.align	2
 164              	.L15:
 165 0050 04540140 		.word	1073828868
 166 0054 00000000 		.word	.LANCHOR0
 167 0058 00100240 		.word	1073876992
 168 005c 00040048 		.word	1207960576
 169              		.cfi_endproc
 170              	.LFE285:
 172              		.section	.text.HAL_SAI_MspDeInit,"ax",%progbits
 173              		.align	1
 174              		.global	HAL_SAI_MspDeInit
 175              		.syntax unified
 176              		.thumb
 177              		.thumb_func
 178              		.fpu fpv4-sp-d16
 180              	HAL_SAI_MspDeInit:
 181              	.LFB286:
  82:HAL/sai.c     **** 
  83:HAL/sai.c     **** void HAL_SAI_MspDeInit(SAI_HandleTypeDef* hsai)
  84:HAL/sai.c     **** {
 182              		.loc 1 84 0
 183              		.cfi_startproc
 184              		@ args = 0, pretend = 0, frame = 0
 185              		@ frame_needed = 0, uses_anonymous_args = 0
 186              	.LVL5:
 187 0000 08B5     		push	{r3, lr}
 188              	.LCFI4:
 189              		.cfi_def_cfa_offset 8
 190              		.cfi_offset 3, -8
 191              		.cfi_offset 14, -4
  85:HAL/sai.c     **** 
  86:HAL/sai.c     **** /* SAI1 */
  87:HAL/sai.c     ****     if(hsai->Instance==SAI1_Block_A)
 192              		.loc 1 87 0
 193 0002 0268     		ldr	r2, [r0]
 194 0004 094B     		ldr	r3, .L22
 195 0006 9A42     		cmp	r2, r3
 196 0008 00D0     		beq	.L21
 197              	.LVL6:
 198              	.L17:
 199 000a 08BD     		pop	{r3, pc}
 200              	.LVL7:
 201              	.L21:
  88:HAL/sai.c     ****     {
ARM GAS  /tmp/ccQWuEqp.s 			page 6


  89:HAL/sai.c     ****     SAI1_client --;
 202              		.loc 1 89 0
 203 000c 084A     		ldr	r2, .L22+4
 204 000e 1368     		ldr	r3, [r2]
 205 0010 013B     		subs	r3, r3, #1
 206 0012 1360     		str	r3, [r2]
  90:HAL/sai.c     ****     if (SAI1_client == 0)
 207              		.loc 1 90 0
 208 0014 23B9     		cbnz	r3, .L19
  91:HAL/sai.c     ****       {
  92:HAL/sai.c     ****       /* Peripheral clock disable */ 
  93:HAL/sai.c     ****        __HAL_RCC_SAI1_CLK_DISABLE();
 209              		.loc 1 93 0
 210 0016 074A     		ldr	r2, .L22+8
 211 0018 136E     		ldr	r3, [r2, #96]
 212 001a 23F40013 		bic	r3, r3, #2097152
 213 001e 1366     		str	r3, [r2, #96]
 214              	.L19:
  94:HAL/sai.c     ****       }
  95:HAL/sai.c     ****     
  96:HAL/sai.c     ****     /**SAI1_A_Block_A GPIO Configuration    
  97:HAL/sai.c     ****     PB12     ------> SAI1_FS_A
  98:HAL/sai.c     ****     PB13     ------> SAI1_SCK_A
  99:HAL/sai.c     ****     PB14     ------> SAI1_MCLK_A
 100:HAL/sai.c     ****     PB15     ------> SAI1_SD_A 
 101:HAL/sai.c     ****     */
 102:HAL/sai.c     ****     HAL_GPIO_DeInit(GPIOB, GPIO_PIN_12|GPIO_PIN_13|GPIO_PIN_14|GPIO_PIN_15);
 215              		.loc 1 102 0
 216 0020 4FF47041 		mov	r1, #61440
 217 0024 0448     		ldr	r0, .L22+12
 218              	.LVL8:
 219 0026 FFF7FEFF 		bl	HAL_GPIO_DeInit
 220              	.LVL9:
 103:HAL/sai.c     **** 
 104:HAL/sai.c     ****     }
 105:HAL/sai.c     **** }
 221              		.loc 1 105 0
 222 002a EEE7     		b	.L17
 223              	.L23:
 224              		.align	2
 225              	.L22:
 226 002c 04540140 		.word	1073828868
 227 0030 00000000 		.word	.LANCHOR0
 228 0034 00100240 		.word	1073876992
 229 0038 00040048 		.word	1207960576
 230              		.cfi_endproc
 231              	.LFE286:
 233              		.comm	hsai_BlockA1,132,4
 234              		.section	.bss.SAI1_client,"aw",%nobits
 235              		.align	2
 236              		.set	.LANCHOR0,. + 0
 239              	SAI1_client:
 240 0000 00000000 		.space	4
 241              		.text
 242              	.Letext0:
 243              		.file 2 "/usr/include/newlib/machine/_default_types.h"
 244              		.file 3 "/usr/include/newlib/sys/_stdint.h"
ARM GAS  /tmp/ccQWuEqp.s 			page 7


 245              		.file 4 "Drivers/CMSIS/Include/core_cm4.h"
 246              		.file 5 "Drivers/CMSIS/Device/ST/STM32L4xx/Include/system_stm32l4xx.h"
 247              		.file 6 "Drivers/CMSIS/Device/ST/STM32L4xx/Include/stm32l433xx.h"
 248              		.file 7 "Drivers/STM32L4xx_HAL_Driver/Inc/stm32l4xx_hal_def.h"
 249              		.file 8 "Drivers/STM32L4xx_HAL_Driver/Inc/stm32l4xx_hal_gpio.h"
 250              		.file 9 "Drivers/STM32L4xx_HAL_Driver/Inc/stm32l4xx_hal_dma.h"
 251              		.file 10 "Drivers/STM32L4xx_HAL_Driver/Inc/stm32l4xx_hal_flash.h"
 252              		.file 11 "Drivers/STM32L4xx_HAL_Driver/Inc/stm32l4xx_hal_sai.h"
 253              		.file 12 "Drivers/STM32L4xx_HAL_Driver/Inc/stm32l4xx_hal.h"
 254              		.file 13 "Inc/sai.h"
 255              		.file 14 "Inc/main.h"
ARM GAS  /tmp/ccQWuEqp.s 			page 8

