ARM GAS  /tmp/cc1T072v.s 			page 1


   1              		.cpu cortex-m4
   2              		.eabi_attribute 27, 1
   3              		.eabi_attribute 28, 1
   4              		.eabi_attribute 20, 1
   5              		.eabi_attribute 21, 1
   6              		.eabi_attribute 23, 3
   7              		.eabi_attribute 24, 1
   8              		.eabi_attribute 25, 1
   9              		.eabi_attribute 26, 1
  10              		.eabi_attribute 30, 1
  11              		.eabi_attribute 34, 1
  12              		.eabi_attribute 18, 4
  13              		.file	"spi.c"
  14              		.text
  15              	.Ltext0:
  16              		.cfi_sections	.debug_frame
  17              		.section	.text.MX_SPI1_Init,"ax",%progbits
  18              		.align	1
  19              		.global	MX_SPI1_Init
  20              		.syntax unified
  21              		.thumb
  22              		.thumb_func
  23              		.fpu fpv4-sp-d16
  25              	MX_SPI1_Init:
  26              	.LFB284:
  27              		.file 1 "HAL/spi.c"
   1:HAL/spi.c     **** /**
   2:HAL/spi.c     ****   ******************************************************************************
   3:HAL/spi.c     ****   * File Name          : SPI.c
   4:HAL/spi.c     ****   * Description        : This file provides code for the configuration
   5:HAL/spi.c     ****   *                      of the SPI instances.
   6:HAL/spi.c     ****   ******************************************************************************
   7:HAL/spi.c     ****   * @attention
   8:HAL/spi.c     ****   *
   9:HAL/spi.c     ****   * <h2><center>&copy; Copyright (c) 2019 STMicroelectronics.
  10:HAL/spi.c     ****   * All rights reserved.</center></h2>
  11:HAL/spi.c     ****   *
  12:HAL/spi.c     ****   * This software component is licensed by ST under BSD 3-Clause license,
  13:HAL/spi.c     ****   * the "License"; You may not use this file except in compliance with the
  14:HAL/spi.c     ****   * License. You may obtain a copy of the License at:
  15:HAL/spi.c     ****   *                        opensource.org/licenses/BSD-3-Clause
  16:HAL/spi.c     ****   *
  17:HAL/spi.c     ****   ******************************************************************************
  18:HAL/spi.c     ****   */
  19:HAL/spi.c     **** 
  20:HAL/spi.c     **** /* Includes ------------------------------------------------------------------*/
  21:HAL/spi.c     **** #include "spi.h"
  22:HAL/spi.c     **** 
  23:HAL/spi.c     **** /* USER CODE BEGIN 0 */
  24:HAL/spi.c     **** 
  25:HAL/spi.c     **** /* USER CODE END 0 */
  26:HAL/spi.c     **** 
  27:HAL/spi.c     **** SPI_HandleTypeDef hspi1;
  28:HAL/spi.c     **** DMA_HandleTypeDef hdma_spi1_tx;
  29:HAL/spi.c     **** 
  30:HAL/spi.c     **** /* SPI1 init function */
  31:HAL/spi.c     **** void MX_SPI1_Init(void)
ARM GAS  /tmp/cc1T072v.s 			page 2


  32:HAL/spi.c     **** {
  28              		.loc 1 32 0
  29              		.cfi_startproc
  30              		@ args = 0, pretend = 0, frame = 0
  31              		@ frame_needed = 0, uses_anonymous_args = 0
  32 0000 08B5     		push	{r3, lr}
  33              	.LCFI0:
  34              		.cfi_def_cfa_offset 8
  35              		.cfi_offset 3, -8
  36              		.cfi_offset 14, -4
  33:HAL/spi.c     **** 
  34:HAL/spi.c     ****   hspi1.Instance = SPI1;
  37              		.loc 1 34 0
  38 0002 1048     		ldr	r0, .L5
  39 0004 104B     		ldr	r3, .L5+4
  40 0006 0360     		str	r3, [r0]
  35:HAL/spi.c     ****   hspi1.Init.Mode = SPI_MODE_MASTER;
  41              		.loc 1 35 0
  42 0008 4FF48273 		mov	r3, #260
  43 000c 4360     		str	r3, [r0, #4]
  36:HAL/spi.c     ****   hspi1.Init.Direction = SPI_DIRECTION_2LINES;
  44              		.loc 1 36 0
  45 000e 0023     		movs	r3, #0
  46 0010 8360     		str	r3, [r0, #8]
  37:HAL/spi.c     ****   hspi1.Init.DataSize = SPI_DATASIZE_4BIT;
  47              		.loc 1 37 0
  48 0012 4FF44072 		mov	r2, #768
  49 0016 C260     		str	r2, [r0, #12]
  38:HAL/spi.c     ****   hspi1.Init.CLKPolarity = SPI_POLARITY_LOW;
  50              		.loc 1 38 0
  51 0018 0361     		str	r3, [r0, #16]
  39:HAL/spi.c     ****   hspi1.Init.CLKPhase = SPI_PHASE_1EDGE;
  52              		.loc 1 39 0
  53 001a 4361     		str	r3, [r0, #20]
  40:HAL/spi.c     ****   hspi1.Init.NSS = SPI_NSS_SOFT;
  54              		.loc 1 40 0
  55 001c 4FF40072 		mov	r2, #512
  56 0020 8261     		str	r2, [r0, #24]
  41:HAL/spi.c     ****   hspi1.Init.BaudRatePrescaler = SPI_BAUDRATEPRESCALER_2;
  57              		.loc 1 41 0
  58 0022 C361     		str	r3, [r0, #28]
  42:HAL/spi.c     ****   hspi1.Init.FirstBit = SPI_FIRSTBIT_MSB;
  59              		.loc 1 42 0
  60 0024 0362     		str	r3, [r0, #32]
  43:HAL/spi.c     ****   hspi1.Init.TIMode = SPI_TIMODE_DISABLE;
  61              		.loc 1 43 0
  62 0026 4362     		str	r3, [r0, #36]
  44:HAL/spi.c     ****   hspi1.Init.CRCCalculation = SPI_CRCCALCULATION_DISABLE;
  63              		.loc 1 44 0
  64 0028 8362     		str	r3, [r0, #40]
  45:HAL/spi.c     ****   hspi1.Init.CRCPolynomial = 7;
  65              		.loc 1 45 0
  66 002a 0722     		movs	r2, #7
  67 002c C262     		str	r2, [r0, #44]
  46:HAL/spi.c     ****   hspi1.Init.CRCLength = SPI_CRC_LENGTH_DATASIZE;
  68              		.loc 1 46 0
  69 002e 0363     		str	r3, [r0, #48]
ARM GAS  /tmp/cc1T072v.s 			page 3


  47:HAL/spi.c     ****   hspi1.Init.NSSPMode = SPI_NSS_PULSE_ENABLE;
  70              		.loc 1 47 0
  71 0030 0823     		movs	r3, #8
  72 0032 4363     		str	r3, [r0, #52]
  48:HAL/spi.c     ****   if (HAL_SPI_Init(&hspi1) != HAL_OK)
  73              		.loc 1 48 0
  74 0034 FFF7FEFF 		bl	HAL_SPI_Init
  75              	.LVL0:
  76 0038 00B9     		cbnz	r0, .L4
  77              	.L1:
  78 003a 08BD     		pop	{r3, pc}
  79              	.L4:
  49:HAL/spi.c     ****   {
  50:HAL/spi.c     ****     Error_Handler();
  80              		.loc 1 50 0
  81 003c FFF7FEFF 		bl	Error_Handler
  82              	.LVL1:
  51:HAL/spi.c     ****   }
  52:HAL/spi.c     **** 
  53:HAL/spi.c     **** }
  83              		.loc 1 53 0
  84 0040 FBE7     		b	.L1
  85              	.L6:
  86 0042 00BF     		.align	2
  87              	.L5:
  88 0044 00000000 		.word	hspi1
  89 0048 00300140 		.word	1073819648
  90              		.cfi_endproc
  91              	.LFE284:
  93              		.section	.text.HAL_SPI_MspInit,"ax",%progbits
  94              		.align	1
  95              		.global	HAL_SPI_MspInit
  96              		.syntax unified
  97              		.thumb
  98              		.thumb_func
  99              		.fpu fpv4-sp-d16
 101              	HAL_SPI_MspInit:
 102              	.LFB285:
  54:HAL/spi.c     **** 
  55:HAL/spi.c     **** void HAL_SPI_MspInit(SPI_HandleTypeDef* spiHandle)
  56:HAL/spi.c     **** {
 103              		.loc 1 56 0
 104              		.cfi_startproc
 105              		@ args = 0, pretend = 0, frame = 32
 106              		@ frame_needed = 0, uses_anonymous_args = 0
 107              	.LVL2:
 108 0000 10B5     		push	{r4, lr}
 109              	.LCFI1:
 110              		.cfi_def_cfa_offset 8
 111              		.cfi_offset 4, -8
 112              		.cfi_offset 14, -4
 113 0002 88B0     		sub	sp, sp, #32
 114              	.LCFI2:
 115              		.cfi_def_cfa_offset 40
  57:HAL/spi.c     **** 
  58:HAL/spi.c     ****   GPIO_InitTypeDef GPIO_InitStruct = {0};
 116              		.loc 1 58 0
ARM GAS  /tmp/cc1T072v.s 			page 4


 117 0004 0023     		movs	r3, #0
 118 0006 0393     		str	r3, [sp, #12]
 119 0008 0493     		str	r3, [sp, #16]
 120 000a 0593     		str	r3, [sp, #20]
 121 000c 0693     		str	r3, [sp, #24]
 122 000e 0793     		str	r3, [sp, #28]
  59:HAL/spi.c     ****   if(spiHandle->Instance==SPI1)
 123              		.loc 1 59 0
 124 0010 0268     		ldr	r2, [r0]
 125 0012 1F4B     		ldr	r3, .L13
 126 0014 9A42     		cmp	r2, r3
 127 0016 01D0     		beq	.L11
 128              	.LVL3:
 129              	.L7:
  60:HAL/spi.c     ****   {
  61:HAL/spi.c     ****   /* USER CODE BEGIN SPI1_MspInit 0 */
  62:HAL/spi.c     **** 
  63:HAL/spi.c     ****   /* USER CODE END SPI1_MspInit 0 */
  64:HAL/spi.c     ****     /* SPI1 clock enable */
  65:HAL/spi.c     ****     __HAL_RCC_SPI1_CLK_ENABLE();
  66:HAL/spi.c     ****   
  67:HAL/spi.c     ****     __HAL_RCC_GPIOB_CLK_ENABLE();
  68:HAL/spi.c     ****     /**SPI1 GPIO Configuration    
  69:HAL/spi.c     ****     PB3 (JTDO-TRACESWO)     ------> SPI1_SCK
  70:HAL/spi.c     ****     PB5     ------> SPI1_MOSI 
  71:HAL/spi.c     ****     */
  72:HAL/spi.c     ****     GPIO_InitStruct.Pin = GPIO_PIN_3|GPIO_PIN_5;
  73:HAL/spi.c     ****     GPIO_InitStruct.Mode = GPIO_MODE_AF_PP;
  74:HAL/spi.c     ****     GPIO_InitStruct.Pull = GPIO_NOPULL;
  75:HAL/spi.c     ****     GPIO_InitStruct.Speed = GPIO_SPEED_FREQ_VERY_HIGH;
  76:HAL/spi.c     ****     GPIO_InitStruct.Alternate = GPIO_AF5_SPI1;
  77:HAL/spi.c     ****     HAL_GPIO_Init(GPIOB, &GPIO_InitStruct);
  78:HAL/spi.c     **** 
  79:HAL/spi.c     ****     /* SPI1 DMA Init */
  80:HAL/spi.c     ****     /* SPI1_TX Init */
  81:HAL/spi.c     ****     hdma_spi1_tx.Instance = DMA1_Channel3;
  82:HAL/spi.c     ****     hdma_spi1_tx.Init.Request = DMA_REQUEST_1;
  83:HAL/spi.c     ****     hdma_spi1_tx.Init.Direction = DMA_MEMORY_TO_PERIPH;
  84:HAL/spi.c     ****     hdma_spi1_tx.Init.PeriphInc = DMA_PINC_DISABLE;
  85:HAL/spi.c     ****     hdma_spi1_tx.Init.MemInc = DMA_MINC_ENABLE;
  86:HAL/spi.c     ****     hdma_spi1_tx.Init.PeriphDataAlignment = DMA_PDATAALIGN_BYTE;
  87:HAL/spi.c     ****     hdma_spi1_tx.Init.MemDataAlignment = DMA_MDATAALIGN_BYTE;
  88:HAL/spi.c     ****     hdma_spi1_tx.Init.Mode = DMA_NORMAL;
  89:HAL/spi.c     ****     hdma_spi1_tx.Init.Priority = DMA_PRIORITY_LOW;
  90:HAL/spi.c     ****     if (HAL_DMA_Init(&hdma_spi1_tx) != HAL_OK)
  91:HAL/spi.c     ****     {
  92:HAL/spi.c     ****       Error_Handler();
  93:HAL/spi.c     ****     }
  94:HAL/spi.c     **** 
  95:HAL/spi.c     ****     __HAL_LINKDMA(spiHandle,hdmatx,hdma_spi1_tx);
  96:HAL/spi.c     **** 
  97:HAL/spi.c     ****   /* USER CODE BEGIN SPI1_MspInit 1 */
  98:HAL/spi.c     **** 
  99:HAL/spi.c     ****   /* USER CODE END SPI1_MspInit 1 */
 100:HAL/spi.c     ****   }
 101:HAL/spi.c     **** }
 130              		.loc 1 101 0
ARM GAS  /tmp/cc1T072v.s 			page 5


 131 0018 08B0     		add	sp, sp, #32
 132              	.LCFI3:
 133              		.cfi_remember_state
 134              		.cfi_def_cfa_offset 8
 135              		@ sp needed
 136 001a 10BD     		pop	{r4, pc}
 137              	.LVL4:
 138              	.L11:
 139              	.LCFI4:
 140              		.cfi_restore_state
 141 001c 0446     		mov	r4, r0
 142              	.LBB2:
  65:HAL/spi.c     ****   
 143              		.loc 1 65 0
 144 001e 03F56043 		add	r3, r3, #57344
 145 0022 1A6E     		ldr	r2, [r3, #96]
 146 0024 42F48052 		orr	r2, r2, #4096
 147 0028 1A66     		str	r2, [r3, #96]
 148 002a 1A6E     		ldr	r2, [r3, #96]
 149 002c 02F48052 		and	r2, r2, #4096
 150 0030 0192     		str	r2, [sp, #4]
 151 0032 019A     		ldr	r2, [sp, #4]
 152              	.LBE2:
 153              	.LBB3:
  67:HAL/spi.c     ****     /**SPI1 GPIO Configuration    
 154              		.loc 1 67 0
 155 0034 DA6C     		ldr	r2, [r3, #76]
 156 0036 42F00202 		orr	r2, r2, #2
 157 003a DA64     		str	r2, [r3, #76]
 158 003c DB6C     		ldr	r3, [r3, #76]
 159 003e 03F00203 		and	r3, r3, #2
 160 0042 0293     		str	r3, [sp, #8]
 161 0044 029B     		ldr	r3, [sp, #8]
 162              	.LBE3:
  72:HAL/spi.c     ****     GPIO_InitStruct.Mode = GPIO_MODE_AF_PP;
 163              		.loc 1 72 0
 164 0046 2823     		movs	r3, #40
 165 0048 0393     		str	r3, [sp, #12]
  73:HAL/spi.c     ****     GPIO_InitStruct.Pull = GPIO_NOPULL;
 166              		.loc 1 73 0
 167 004a 0223     		movs	r3, #2
 168 004c 0493     		str	r3, [sp, #16]
  75:HAL/spi.c     ****     GPIO_InitStruct.Alternate = GPIO_AF5_SPI1;
 169              		.loc 1 75 0
 170 004e 0323     		movs	r3, #3
 171 0050 0693     		str	r3, [sp, #24]
  76:HAL/spi.c     ****     HAL_GPIO_Init(GPIOB, &GPIO_InitStruct);
 172              		.loc 1 76 0
 173 0052 0523     		movs	r3, #5
 174 0054 0793     		str	r3, [sp, #28]
  77:HAL/spi.c     **** 
 175              		.loc 1 77 0
 176 0056 03A9     		add	r1, sp, #12
 177 0058 0E48     		ldr	r0, .L13+4
 178              	.LVL5:
 179 005a FFF7FEFF 		bl	HAL_GPIO_Init
 180              	.LVL6:
ARM GAS  /tmp/cc1T072v.s 			page 6


  81:HAL/spi.c     ****     hdma_spi1_tx.Init.Request = DMA_REQUEST_1;
 181              		.loc 1 81 0
 182 005e 0E48     		ldr	r0, .L13+8
 183 0060 0E4B     		ldr	r3, .L13+12
 184 0062 0360     		str	r3, [r0]
  82:HAL/spi.c     ****     hdma_spi1_tx.Init.Direction = DMA_MEMORY_TO_PERIPH;
 185              		.loc 1 82 0
 186 0064 0123     		movs	r3, #1
 187 0066 4360     		str	r3, [r0, #4]
  83:HAL/spi.c     ****     hdma_spi1_tx.Init.PeriphInc = DMA_PINC_DISABLE;
 188              		.loc 1 83 0
 189 0068 1023     		movs	r3, #16
 190 006a 8360     		str	r3, [r0, #8]
  84:HAL/spi.c     ****     hdma_spi1_tx.Init.MemInc = DMA_MINC_ENABLE;
 191              		.loc 1 84 0
 192 006c 0023     		movs	r3, #0
 193 006e C360     		str	r3, [r0, #12]
  85:HAL/spi.c     ****     hdma_spi1_tx.Init.PeriphDataAlignment = DMA_PDATAALIGN_BYTE;
 194              		.loc 1 85 0
 195 0070 8022     		movs	r2, #128
 196 0072 0261     		str	r2, [r0, #16]
  86:HAL/spi.c     ****     hdma_spi1_tx.Init.MemDataAlignment = DMA_MDATAALIGN_BYTE;
 197              		.loc 1 86 0
 198 0074 4361     		str	r3, [r0, #20]
  87:HAL/spi.c     ****     hdma_spi1_tx.Init.Mode = DMA_NORMAL;
 199              		.loc 1 87 0
 200 0076 8361     		str	r3, [r0, #24]
  88:HAL/spi.c     ****     hdma_spi1_tx.Init.Priority = DMA_PRIORITY_LOW;
 201              		.loc 1 88 0
 202 0078 C361     		str	r3, [r0, #28]
  89:HAL/spi.c     ****     if (HAL_DMA_Init(&hdma_spi1_tx) != HAL_OK)
 203              		.loc 1 89 0
 204 007a 0362     		str	r3, [r0, #32]
  90:HAL/spi.c     ****     {
 205              		.loc 1 90 0
 206 007c FFF7FEFF 		bl	HAL_DMA_Init
 207              	.LVL7:
 208 0080 18B9     		cbnz	r0, .L12
 209              	.L9:
  95:HAL/spi.c     **** 
 210              		.loc 1 95 0
 211 0082 054B     		ldr	r3, .L13+8
 212 0084 6365     		str	r3, [r4, #84]
 213 0086 9C62     		str	r4, [r3, #40]
 214              		.loc 1 101 0
 215 0088 C6E7     		b	.L7
 216              	.L12:
  92:HAL/spi.c     ****     }
 217              		.loc 1 92 0
 218 008a FFF7FEFF 		bl	Error_Handler
 219              	.LVL8:
 220 008e F8E7     		b	.L9
 221              	.L14:
 222              		.align	2
 223              	.L13:
 224 0090 00300140 		.word	1073819648
 225 0094 00040048 		.word	1207960576
ARM GAS  /tmp/cc1T072v.s 			page 7


 226 0098 00000000 		.word	hdma_spi1_tx
 227 009c 30000240 		.word	1073872944
 228              		.cfi_endproc
 229              	.LFE285:
 231              		.section	.text.HAL_SPI_MspDeInit,"ax",%progbits
 232              		.align	1
 233              		.global	HAL_SPI_MspDeInit
 234              		.syntax unified
 235              		.thumb
 236              		.thumb_func
 237              		.fpu fpv4-sp-d16
 239              	HAL_SPI_MspDeInit:
 240              	.LFB286:
 102:HAL/spi.c     **** 
 103:HAL/spi.c     **** void HAL_SPI_MspDeInit(SPI_HandleTypeDef* spiHandle)
 104:HAL/spi.c     **** {
 241              		.loc 1 104 0
 242              		.cfi_startproc
 243              		@ args = 0, pretend = 0, frame = 0
 244              		@ frame_needed = 0, uses_anonymous_args = 0
 245              	.LVL9:
 105:HAL/spi.c     **** 
 106:HAL/spi.c     ****   if(spiHandle->Instance==SPI1)
 246              		.loc 1 106 0
 247 0000 0268     		ldr	r2, [r0]
 248 0002 094B     		ldr	r3, .L22
 249 0004 9A42     		cmp	r2, r3
 250 0006 00D0     		beq	.L21
 251 0008 7047     		bx	lr
 252              	.L21:
 104:HAL/spi.c     **** 
 253              		.loc 1 104 0
 254 000a 10B5     		push	{r4, lr}
 255              	.LCFI5:
 256              		.cfi_def_cfa_offset 8
 257              		.cfi_offset 4, -8
 258              		.cfi_offset 14, -4
 259 000c 0446     		mov	r4, r0
 107:HAL/spi.c     ****   {
 108:HAL/spi.c     ****   /* USER CODE BEGIN SPI1_MspDeInit 0 */
 109:HAL/spi.c     **** 
 110:HAL/spi.c     ****   /* USER CODE END SPI1_MspDeInit 0 */
 111:HAL/spi.c     ****     /* Peripheral clock disable */
 112:HAL/spi.c     ****     __HAL_RCC_SPI1_CLK_DISABLE();
 260              		.loc 1 112 0
 261 000e 074A     		ldr	r2, .L22+4
 262 0010 136E     		ldr	r3, [r2, #96]
 263 0012 23F48053 		bic	r3, r3, #4096
 264 0016 1366     		str	r3, [r2, #96]
 113:HAL/spi.c     ****   
 114:HAL/spi.c     ****     /**SPI1 GPIO Configuration    
 115:HAL/spi.c     ****     PB3 (JTDO-TRACESWO)     ------> SPI1_SCK
 116:HAL/spi.c     ****     PB5     ------> SPI1_MOSI 
 117:HAL/spi.c     ****     */
 118:HAL/spi.c     ****     HAL_GPIO_DeInit(GPIOB, GPIO_PIN_3|GPIO_PIN_5);
 265              		.loc 1 118 0
 266 0018 2821     		movs	r1, #40
ARM GAS  /tmp/cc1T072v.s 			page 8


 267 001a 0548     		ldr	r0, .L22+8
 268              	.LVL10:
 269 001c FFF7FEFF 		bl	HAL_GPIO_DeInit
 270              	.LVL11:
 119:HAL/spi.c     **** 
 120:HAL/spi.c     ****     /* SPI1 DMA DeInit */
 121:HAL/spi.c     ****     HAL_DMA_DeInit(spiHandle->hdmatx);
 271              		.loc 1 121 0
 272 0020 606D     		ldr	r0, [r4, #84]
 273 0022 FFF7FEFF 		bl	HAL_DMA_DeInit
 274              	.LVL12:
 275 0026 10BD     		pop	{r4, pc}
 276              	.LVL13:
 277              	.L23:
 278              		.align	2
 279              	.L22:
 280 0028 00300140 		.word	1073819648
 281 002c 00100240 		.word	1073876992
 282 0030 00040048 		.word	1207960576
 283              		.cfi_endproc
 284              	.LFE286:
 286              		.comm	hdma_spi1_tx,72,4
 287              		.comm	hspi1,100,4
 288              		.text
 289              	.Letext0:
 290              		.file 2 "/usr/include/newlib/machine/_default_types.h"
 291              		.file 3 "/usr/include/newlib/sys/_stdint.h"
 292              		.file 4 "Drivers/CMSIS/Include/core_cm4.h"
 293              		.file 5 "Drivers/CMSIS/Device/ST/STM32L4xx/Include/system_stm32l4xx.h"
 294              		.file 6 "Drivers/CMSIS/Device/ST/STM32L4xx/Include/stm32l433xx.h"
 295              		.file 7 "Drivers/STM32L4xx_HAL_Driver/Inc/stm32l4xx_hal_def.h"
 296              		.file 8 "Drivers/STM32L4xx_HAL_Driver/Inc/stm32l4xx_hal_gpio.h"
 297              		.file 9 "Drivers/STM32L4xx_HAL_Driver/Inc/stm32l4xx_hal_dma.h"
 298              		.file 10 "Drivers/STM32L4xx_HAL_Driver/Inc/stm32l4xx_hal_flash.h"
 299              		.file 11 "Drivers/STM32L4xx_HAL_Driver/Inc/stm32l4xx_hal_spi.h"
 300              		.file 12 "Drivers/STM32L4xx_HAL_Driver/Inc/stm32l4xx_hal.h"
 301              		.file 13 "Inc/spi.h"
 302              		.file 14 "Inc/main.h"
ARM GAS  /tmp/cc1T072v.s 			page 9

