ARM GAS  /tmp/ccz3bLTm.s 			page 1


   1              		.cpu cortex-m4
   2              		.eabi_attribute 27, 1
   3              		.eabi_attribute 28, 1
   4              		.eabi_attribute 20, 1
   5              		.eabi_attribute 21, 1
   6              		.eabi_attribute 23, 3
   7              		.eabi_attribute 24, 1
   8              		.eabi_attribute 25, 1
   9              		.eabi_attribute 26, 1
  10              		.eabi_attribute 30, 1
  11              		.eabi_attribute 34, 1
  12              		.eabi_attribute 18, 4
  13              		.file	"stm32l4xx_hal_uart_ex.c"
  14              		.text
  15              	.Ltext0:
  16              		.cfi_sections	.debug_frame
  17              		.section	.text.UARTEx_Wakeup_AddressConfig,"ax",%progbits
  18              		.align	1
  19              		.syntax unified
  20              		.thumb
  21              		.thumb_func
  22              		.fpu fpv4-sp-d16
  24              	UARTEx_Wakeup_AddressConfig:
  25              	.LFB292:
  26              		.file 1 "Drivers/STM32L4xx_HAL_Driver/Src/stm32l4xx_hal_uart_ex.c"
   1:Drivers/STM32L4xx_HAL_Driver/Src/stm32l4xx_hal_uart_ex.c **** /**
   2:Drivers/STM32L4xx_HAL_Driver/Src/stm32l4xx_hal_uart_ex.c ****   ******************************************************************************
   3:Drivers/STM32L4xx_HAL_Driver/Src/stm32l4xx_hal_uart_ex.c ****   * @file    stm32l4xx_hal_uart_ex.c
   4:Drivers/STM32L4xx_HAL_Driver/Src/stm32l4xx_hal_uart_ex.c ****   * @author  MCD Application Team
   5:Drivers/STM32L4xx_HAL_Driver/Src/stm32l4xx_hal_uart_ex.c ****   * @brief   Extended UART HAL module driver.
   6:Drivers/STM32L4xx_HAL_Driver/Src/stm32l4xx_hal_uart_ex.c ****   *          This file provides firmware functions to manage the following extended
   7:Drivers/STM32L4xx_HAL_Driver/Src/stm32l4xx_hal_uart_ex.c ****   *          functionalities of the Universal Asynchronous Receiver Transmitter Peripheral (UART).
   8:Drivers/STM32L4xx_HAL_Driver/Src/stm32l4xx_hal_uart_ex.c ****   *           + Initialization and de-initialization functions
   9:Drivers/STM32L4xx_HAL_Driver/Src/stm32l4xx_hal_uart_ex.c ****   *           + Peripheral Control functions
  10:Drivers/STM32L4xx_HAL_Driver/Src/stm32l4xx_hal_uart_ex.c ****   *
  11:Drivers/STM32L4xx_HAL_Driver/Src/stm32l4xx_hal_uart_ex.c ****   *
  12:Drivers/STM32L4xx_HAL_Driver/Src/stm32l4xx_hal_uart_ex.c ****   @verbatim
  13:Drivers/STM32L4xx_HAL_Driver/Src/stm32l4xx_hal_uart_ex.c ****   ==============================================================================
  14:Drivers/STM32L4xx_HAL_Driver/Src/stm32l4xx_hal_uart_ex.c ****                ##### UART peripheral extended features  #####
  15:Drivers/STM32L4xx_HAL_Driver/Src/stm32l4xx_hal_uart_ex.c ****   ==============================================================================
  16:Drivers/STM32L4xx_HAL_Driver/Src/stm32l4xx_hal_uart_ex.c **** 
  17:Drivers/STM32L4xx_HAL_Driver/Src/stm32l4xx_hal_uart_ex.c ****     (#) Declare a UART_HandleTypeDef handle structure.
  18:Drivers/STM32L4xx_HAL_Driver/Src/stm32l4xx_hal_uart_ex.c **** 
  19:Drivers/STM32L4xx_HAL_Driver/Src/stm32l4xx_hal_uart_ex.c ****     (#) For the UART RS485 Driver Enable mode, initialize the UART registers
  20:Drivers/STM32L4xx_HAL_Driver/Src/stm32l4xx_hal_uart_ex.c ****         by calling the HAL_RS485Ex_Init() API.
  21:Drivers/STM32L4xx_HAL_Driver/Src/stm32l4xx_hal_uart_ex.c **** 
  22:Drivers/STM32L4xx_HAL_Driver/Src/stm32l4xx_hal_uart_ex.c ****     (#) FIFO mode enabling/disabling and RX/TX FIFO threshold programming.
  23:Drivers/STM32L4xx_HAL_Driver/Src/stm32l4xx_hal_uart_ex.c **** 
  24:Drivers/STM32L4xx_HAL_Driver/Src/stm32l4xx_hal_uart_ex.c ****         -@- When UART operates in FIFO mode, FIFO mode must be enabled prior
  25:Drivers/STM32L4xx_HAL_Driver/Src/stm32l4xx_hal_uart_ex.c ****             starting RX/TX transfers. Also RX/TX FIFO thresholds must be
  26:Drivers/STM32L4xx_HAL_Driver/Src/stm32l4xx_hal_uart_ex.c ****             configured prior starting RX/TX transfers.
  27:Drivers/STM32L4xx_HAL_Driver/Src/stm32l4xx_hal_uart_ex.c **** 
  28:Drivers/STM32L4xx_HAL_Driver/Src/stm32l4xx_hal_uart_ex.c ****   @endverbatim
  29:Drivers/STM32L4xx_HAL_Driver/Src/stm32l4xx_hal_uart_ex.c ****   ******************************************************************************
  30:Drivers/STM32L4xx_HAL_Driver/Src/stm32l4xx_hal_uart_ex.c ****   * @attention
  31:Drivers/STM32L4xx_HAL_Driver/Src/stm32l4xx_hal_uart_ex.c ****   *
  32:Drivers/STM32L4xx_HAL_Driver/Src/stm32l4xx_hal_uart_ex.c ****   * <h2><center>&copy; Copyright (c) 2017 STMicroelectronics.
ARM GAS  /tmp/ccz3bLTm.s 			page 2


  33:Drivers/STM32L4xx_HAL_Driver/Src/stm32l4xx_hal_uart_ex.c ****   * All rights reserved.</center></h2>
  34:Drivers/STM32L4xx_HAL_Driver/Src/stm32l4xx_hal_uart_ex.c ****   *
  35:Drivers/STM32L4xx_HAL_Driver/Src/stm32l4xx_hal_uart_ex.c ****   * This software component is licensed by ST under BSD 3-Clause license,
  36:Drivers/STM32L4xx_HAL_Driver/Src/stm32l4xx_hal_uart_ex.c ****   * the "License"; You may not use this file except in compliance with the
  37:Drivers/STM32L4xx_HAL_Driver/Src/stm32l4xx_hal_uart_ex.c ****   * License. You may obtain a copy of the License at:
  38:Drivers/STM32L4xx_HAL_Driver/Src/stm32l4xx_hal_uart_ex.c ****   *                        opensource.org/licenses/BSD-3-Clause
  39:Drivers/STM32L4xx_HAL_Driver/Src/stm32l4xx_hal_uart_ex.c ****   *
  40:Drivers/STM32L4xx_HAL_Driver/Src/stm32l4xx_hal_uart_ex.c ****   ******************************************************************************
  41:Drivers/STM32L4xx_HAL_Driver/Src/stm32l4xx_hal_uart_ex.c ****   */
  42:Drivers/STM32L4xx_HAL_Driver/Src/stm32l4xx_hal_uart_ex.c **** 
  43:Drivers/STM32L4xx_HAL_Driver/Src/stm32l4xx_hal_uart_ex.c **** /* Includes ------------------------------------------------------------------*/
  44:Drivers/STM32L4xx_HAL_Driver/Src/stm32l4xx_hal_uart_ex.c **** #include "stm32l4xx_hal.h"
  45:Drivers/STM32L4xx_HAL_Driver/Src/stm32l4xx_hal_uart_ex.c **** 
  46:Drivers/STM32L4xx_HAL_Driver/Src/stm32l4xx_hal_uart_ex.c **** /** @addtogroup STM32L4xx_HAL_Driver
  47:Drivers/STM32L4xx_HAL_Driver/Src/stm32l4xx_hal_uart_ex.c ****   * @{
  48:Drivers/STM32L4xx_HAL_Driver/Src/stm32l4xx_hal_uart_ex.c ****   */
  49:Drivers/STM32L4xx_HAL_Driver/Src/stm32l4xx_hal_uart_ex.c **** 
  50:Drivers/STM32L4xx_HAL_Driver/Src/stm32l4xx_hal_uart_ex.c **** /** @defgroup UARTEx UARTEx
  51:Drivers/STM32L4xx_HAL_Driver/Src/stm32l4xx_hal_uart_ex.c ****   * @brief UART Extended HAL module driver
  52:Drivers/STM32L4xx_HAL_Driver/Src/stm32l4xx_hal_uart_ex.c ****   * @{
  53:Drivers/STM32L4xx_HAL_Driver/Src/stm32l4xx_hal_uart_ex.c ****   */
  54:Drivers/STM32L4xx_HAL_Driver/Src/stm32l4xx_hal_uart_ex.c **** 
  55:Drivers/STM32L4xx_HAL_Driver/Src/stm32l4xx_hal_uart_ex.c **** #ifdef HAL_UART_MODULE_ENABLED
  56:Drivers/STM32L4xx_HAL_Driver/Src/stm32l4xx_hal_uart_ex.c **** 
  57:Drivers/STM32L4xx_HAL_Driver/Src/stm32l4xx_hal_uart_ex.c **** /* Private typedef -----------------------------------------------------------*/
  58:Drivers/STM32L4xx_HAL_Driver/Src/stm32l4xx_hal_uart_ex.c **** /* Private define ------------------------------------------------------------*/
  59:Drivers/STM32L4xx_HAL_Driver/Src/stm32l4xx_hal_uart_ex.c **** #if defined(USART_CR1_FIFOEN)
  60:Drivers/STM32L4xx_HAL_Driver/Src/stm32l4xx_hal_uart_ex.c **** /** @defgroup UARTEX_Private_Constants UARTEx Private Constants
  61:Drivers/STM32L4xx_HAL_Driver/Src/stm32l4xx_hal_uart_ex.c ****   * @{
  62:Drivers/STM32L4xx_HAL_Driver/Src/stm32l4xx_hal_uart_ex.c ****   */
  63:Drivers/STM32L4xx_HAL_Driver/Src/stm32l4xx_hal_uart_ex.c **** /* UART RX FIFO depth */
  64:Drivers/STM32L4xx_HAL_Driver/Src/stm32l4xx_hal_uart_ex.c **** #define RX_FIFO_DEPTH 8U
  65:Drivers/STM32L4xx_HAL_Driver/Src/stm32l4xx_hal_uart_ex.c **** 
  66:Drivers/STM32L4xx_HAL_Driver/Src/stm32l4xx_hal_uart_ex.c **** /* UART TX FIFO depth */
  67:Drivers/STM32L4xx_HAL_Driver/Src/stm32l4xx_hal_uart_ex.c **** #define TX_FIFO_DEPTH 8U
  68:Drivers/STM32L4xx_HAL_Driver/Src/stm32l4xx_hal_uart_ex.c **** /**
  69:Drivers/STM32L4xx_HAL_Driver/Src/stm32l4xx_hal_uart_ex.c ****   * @}
  70:Drivers/STM32L4xx_HAL_Driver/Src/stm32l4xx_hal_uart_ex.c ****   */
  71:Drivers/STM32L4xx_HAL_Driver/Src/stm32l4xx_hal_uart_ex.c **** #endif /* USART_CR1_FIFOEN */
  72:Drivers/STM32L4xx_HAL_Driver/Src/stm32l4xx_hal_uart_ex.c **** 
  73:Drivers/STM32L4xx_HAL_Driver/Src/stm32l4xx_hal_uart_ex.c **** /* Private macros ------------------------------------------------------------*/
  74:Drivers/STM32L4xx_HAL_Driver/Src/stm32l4xx_hal_uart_ex.c **** /* Private variables ---------------------------------------------------------*/
  75:Drivers/STM32L4xx_HAL_Driver/Src/stm32l4xx_hal_uart_ex.c **** /* Private function prototypes -----------------------------------------------*/
  76:Drivers/STM32L4xx_HAL_Driver/Src/stm32l4xx_hal_uart_ex.c **** /** @defgroup UARTEx_Private_Functions UARTEx Private Functions
  77:Drivers/STM32L4xx_HAL_Driver/Src/stm32l4xx_hal_uart_ex.c ****   * @{
  78:Drivers/STM32L4xx_HAL_Driver/Src/stm32l4xx_hal_uart_ex.c ****   */
  79:Drivers/STM32L4xx_HAL_Driver/Src/stm32l4xx_hal_uart_ex.c **** static void UARTEx_Wakeup_AddressConfig(UART_HandleTypeDef *huart, UART_WakeUpTypeDef WakeUpSelecti
  80:Drivers/STM32L4xx_HAL_Driver/Src/stm32l4xx_hal_uart_ex.c **** #if defined(USART_CR1_FIFOEN)
  81:Drivers/STM32L4xx_HAL_Driver/Src/stm32l4xx_hal_uart_ex.c **** static void UARTEx_SetNbDataToProcess(UART_HandleTypeDef *huart);
  82:Drivers/STM32L4xx_HAL_Driver/Src/stm32l4xx_hal_uart_ex.c **** #endif /* USART_CR1_FIFOEN */
  83:Drivers/STM32L4xx_HAL_Driver/Src/stm32l4xx_hal_uart_ex.c **** /**
  84:Drivers/STM32L4xx_HAL_Driver/Src/stm32l4xx_hal_uart_ex.c ****   * @}
  85:Drivers/STM32L4xx_HAL_Driver/Src/stm32l4xx_hal_uart_ex.c ****   */
  86:Drivers/STM32L4xx_HAL_Driver/Src/stm32l4xx_hal_uart_ex.c **** 
  87:Drivers/STM32L4xx_HAL_Driver/Src/stm32l4xx_hal_uart_ex.c **** /* Exported functions --------------------------------------------------------*/
  88:Drivers/STM32L4xx_HAL_Driver/Src/stm32l4xx_hal_uart_ex.c **** 
  89:Drivers/STM32L4xx_HAL_Driver/Src/stm32l4xx_hal_uart_ex.c **** /** @defgroup UARTEx_Exported_Functions  UARTEx Exported Functions
ARM GAS  /tmp/ccz3bLTm.s 			page 3


  90:Drivers/STM32L4xx_HAL_Driver/Src/stm32l4xx_hal_uart_ex.c ****   * @{
  91:Drivers/STM32L4xx_HAL_Driver/Src/stm32l4xx_hal_uart_ex.c ****   */
  92:Drivers/STM32L4xx_HAL_Driver/Src/stm32l4xx_hal_uart_ex.c **** 
  93:Drivers/STM32L4xx_HAL_Driver/Src/stm32l4xx_hal_uart_ex.c **** /** @defgroup UARTEx_Exported_Functions_Group1 Initialization and de-initialization functions
  94:Drivers/STM32L4xx_HAL_Driver/Src/stm32l4xx_hal_uart_ex.c ****   * @brief    Extended Initialization and Configuration Functions
  95:Drivers/STM32L4xx_HAL_Driver/Src/stm32l4xx_hal_uart_ex.c ****   *
  96:Drivers/STM32L4xx_HAL_Driver/Src/stm32l4xx_hal_uart_ex.c **** @verbatim
  97:Drivers/STM32L4xx_HAL_Driver/Src/stm32l4xx_hal_uart_ex.c **** ===============================================================================
  98:Drivers/STM32L4xx_HAL_Driver/Src/stm32l4xx_hal_uart_ex.c ****             ##### Initialization and Configuration functions #####
  99:Drivers/STM32L4xx_HAL_Driver/Src/stm32l4xx_hal_uart_ex.c ****  ===============================================================================
 100:Drivers/STM32L4xx_HAL_Driver/Src/stm32l4xx_hal_uart_ex.c ****     [..]
 101:Drivers/STM32L4xx_HAL_Driver/Src/stm32l4xx_hal_uart_ex.c ****     This subsection provides a set of functions allowing to initialize the USARTx or the UARTy
 102:Drivers/STM32L4xx_HAL_Driver/Src/stm32l4xx_hal_uart_ex.c ****     in asynchronous mode.
 103:Drivers/STM32L4xx_HAL_Driver/Src/stm32l4xx_hal_uart_ex.c ****       (+) For the asynchronous mode the parameters below can be configured:
 104:Drivers/STM32L4xx_HAL_Driver/Src/stm32l4xx_hal_uart_ex.c ****         (++) Baud Rate
 105:Drivers/STM32L4xx_HAL_Driver/Src/stm32l4xx_hal_uart_ex.c ****         (++) Word Length
 106:Drivers/STM32L4xx_HAL_Driver/Src/stm32l4xx_hal_uart_ex.c ****         (++) Stop Bit
 107:Drivers/STM32L4xx_HAL_Driver/Src/stm32l4xx_hal_uart_ex.c ****         (++) Parity: If the parity is enabled, then the MSB bit of the data written
 108:Drivers/STM32L4xx_HAL_Driver/Src/stm32l4xx_hal_uart_ex.c ****              in the data register is transmitted but is changed by the parity bit.
 109:Drivers/STM32L4xx_HAL_Driver/Src/stm32l4xx_hal_uart_ex.c ****         (++) Hardware flow control
 110:Drivers/STM32L4xx_HAL_Driver/Src/stm32l4xx_hal_uart_ex.c ****         (++) Receiver/transmitter modes
 111:Drivers/STM32L4xx_HAL_Driver/Src/stm32l4xx_hal_uart_ex.c ****         (++) Over Sampling Method
 112:Drivers/STM32L4xx_HAL_Driver/Src/stm32l4xx_hal_uart_ex.c ****         (++) One-Bit Sampling Method
 113:Drivers/STM32L4xx_HAL_Driver/Src/stm32l4xx_hal_uart_ex.c ****       (+) For the asynchronous mode, the following advanced features can be configured as well:
 114:Drivers/STM32L4xx_HAL_Driver/Src/stm32l4xx_hal_uart_ex.c ****         (++) TX and/or RX pin level inversion
 115:Drivers/STM32L4xx_HAL_Driver/Src/stm32l4xx_hal_uart_ex.c ****         (++) data logical level inversion
 116:Drivers/STM32L4xx_HAL_Driver/Src/stm32l4xx_hal_uart_ex.c ****         (++) RX and TX pins swap
 117:Drivers/STM32L4xx_HAL_Driver/Src/stm32l4xx_hal_uart_ex.c ****         (++) RX overrun detection disabling
 118:Drivers/STM32L4xx_HAL_Driver/Src/stm32l4xx_hal_uart_ex.c ****         (++) DMA disabling on RX error
 119:Drivers/STM32L4xx_HAL_Driver/Src/stm32l4xx_hal_uart_ex.c ****         (++) MSB first on communication line
 120:Drivers/STM32L4xx_HAL_Driver/Src/stm32l4xx_hal_uart_ex.c ****         (++) auto Baud rate detection
 121:Drivers/STM32L4xx_HAL_Driver/Src/stm32l4xx_hal_uart_ex.c ****     [..]
 122:Drivers/STM32L4xx_HAL_Driver/Src/stm32l4xx_hal_uart_ex.c ****     The HAL_RS485Ex_Init() API follows the UART RS485 mode configuration
 123:Drivers/STM32L4xx_HAL_Driver/Src/stm32l4xx_hal_uart_ex.c ****      procedures (details for the procedures are available in reference manual).
 124:Drivers/STM32L4xx_HAL_Driver/Src/stm32l4xx_hal_uart_ex.c **** 
 125:Drivers/STM32L4xx_HAL_Driver/Src/stm32l4xx_hal_uart_ex.c **** @endverbatim
 126:Drivers/STM32L4xx_HAL_Driver/Src/stm32l4xx_hal_uart_ex.c **** 
 127:Drivers/STM32L4xx_HAL_Driver/Src/stm32l4xx_hal_uart_ex.c ****   Depending on the frame length defined by the M1 and M0 bits (7-bit,
 128:Drivers/STM32L4xx_HAL_Driver/Src/stm32l4xx_hal_uart_ex.c ****   8-bit or 9-bit), the possible UART formats are listed in the
 129:Drivers/STM32L4xx_HAL_Driver/Src/stm32l4xx_hal_uart_ex.c ****   following table.
 130:Drivers/STM32L4xx_HAL_Driver/Src/stm32l4xx_hal_uart_ex.c **** 
 131:Drivers/STM32L4xx_HAL_Driver/Src/stm32l4xx_hal_uart_ex.c ****     Table 1. UART frame format.
 132:Drivers/STM32L4xx_HAL_Driver/Src/stm32l4xx_hal_uart_ex.c ****     +-----------------------------------------------------------------------+
 133:Drivers/STM32L4xx_HAL_Driver/Src/stm32l4xx_hal_uart_ex.c ****     |  M1 bit |  M0 bit |  PCE bit  |             UART frame                |
 134:Drivers/STM32L4xx_HAL_Driver/Src/stm32l4xx_hal_uart_ex.c ****     |---------|---------|-----------|---------------------------------------|
 135:Drivers/STM32L4xx_HAL_Driver/Src/stm32l4xx_hal_uart_ex.c ****     |    0    |    0    |    0      |    | SB |    8 bit data   | STB |     |
 136:Drivers/STM32L4xx_HAL_Driver/Src/stm32l4xx_hal_uart_ex.c ****     |---------|---------|-----------|---------------------------------------|
 137:Drivers/STM32L4xx_HAL_Driver/Src/stm32l4xx_hal_uart_ex.c ****     |    0    |    0    |    1      |    | SB | 7 bit data | PB | STB |     |
 138:Drivers/STM32L4xx_HAL_Driver/Src/stm32l4xx_hal_uart_ex.c ****     |---------|---------|-----------|---------------------------------------|
 139:Drivers/STM32L4xx_HAL_Driver/Src/stm32l4xx_hal_uart_ex.c ****     |    0    |    1    |    0      |    | SB |    9 bit data   | STB |     |
 140:Drivers/STM32L4xx_HAL_Driver/Src/stm32l4xx_hal_uart_ex.c ****     |---------|---------|-----------|---------------------------------------|
 141:Drivers/STM32L4xx_HAL_Driver/Src/stm32l4xx_hal_uart_ex.c ****     |    0    |    1    |    1      |    | SB | 8 bit data | PB | STB |     |
 142:Drivers/STM32L4xx_HAL_Driver/Src/stm32l4xx_hal_uart_ex.c ****     |---------|---------|-----------|---------------------------------------|
 143:Drivers/STM32L4xx_HAL_Driver/Src/stm32l4xx_hal_uart_ex.c ****     |    1    |    0    |    0      |    | SB |    7 bit data   | STB |     |
 144:Drivers/STM32L4xx_HAL_Driver/Src/stm32l4xx_hal_uart_ex.c ****     |---------|---------|-----------|---------------------------------------|
 145:Drivers/STM32L4xx_HAL_Driver/Src/stm32l4xx_hal_uart_ex.c ****     |    1    |    0    |    1      |    | SB | 6 bit data | PB | STB |     |
 146:Drivers/STM32L4xx_HAL_Driver/Src/stm32l4xx_hal_uart_ex.c ****     +-----------------------------------------------------------------------+
ARM GAS  /tmp/ccz3bLTm.s 			page 4


 147:Drivers/STM32L4xx_HAL_Driver/Src/stm32l4xx_hal_uart_ex.c **** 
 148:Drivers/STM32L4xx_HAL_Driver/Src/stm32l4xx_hal_uart_ex.c ****   * @{
 149:Drivers/STM32L4xx_HAL_Driver/Src/stm32l4xx_hal_uart_ex.c ****   */
 150:Drivers/STM32L4xx_HAL_Driver/Src/stm32l4xx_hal_uart_ex.c **** 
 151:Drivers/STM32L4xx_HAL_Driver/Src/stm32l4xx_hal_uart_ex.c **** /**
 152:Drivers/STM32L4xx_HAL_Driver/Src/stm32l4xx_hal_uart_ex.c ****   * @brief Initialize the RS485 Driver enable feature according to the specified
 153:Drivers/STM32L4xx_HAL_Driver/Src/stm32l4xx_hal_uart_ex.c ****   *         parameters in the UART_InitTypeDef and creates the associated handle.
 154:Drivers/STM32L4xx_HAL_Driver/Src/stm32l4xx_hal_uart_ex.c ****   * @param huart            UART handle.
 155:Drivers/STM32L4xx_HAL_Driver/Src/stm32l4xx_hal_uart_ex.c ****   * @param Polarity         Select the driver enable polarity.
 156:Drivers/STM32L4xx_HAL_Driver/Src/stm32l4xx_hal_uart_ex.c ****   *          This parameter can be one of the following values:
 157:Drivers/STM32L4xx_HAL_Driver/Src/stm32l4xx_hal_uart_ex.c ****   *          @arg @ref UART_DE_POLARITY_HIGH DE signal is active high
 158:Drivers/STM32L4xx_HAL_Driver/Src/stm32l4xx_hal_uart_ex.c ****   *          @arg @ref UART_DE_POLARITY_LOW  DE signal is active low
 159:Drivers/STM32L4xx_HAL_Driver/Src/stm32l4xx_hal_uart_ex.c ****   * @param AssertionTime    Driver Enable assertion time:
 160:Drivers/STM32L4xx_HAL_Driver/Src/stm32l4xx_hal_uart_ex.c ****   *       5-bit value defining the time between the activation of the DE (Driver Enable)
 161:Drivers/STM32L4xx_HAL_Driver/Src/stm32l4xx_hal_uart_ex.c ****   *       signal and the beginning of the start bit. It is expressed in sample time
 162:Drivers/STM32L4xx_HAL_Driver/Src/stm32l4xx_hal_uart_ex.c ****   *       units (1/8 or 1/16 bit time, depending on the oversampling rate)
 163:Drivers/STM32L4xx_HAL_Driver/Src/stm32l4xx_hal_uart_ex.c ****   * @param DeassertionTime  Driver Enable deassertion time:
 164:Drivers/STM32L4xx_HAL_Driver/Src/stm32l4xx_hal_uart_ex.c ****   *       5-bit value defining the time between the end of the last stop bit, in a
 165:Drivers/STM32L4xx_HAL_Driver/Src/stm32l4xx_hal_uart_ex.c ****   *       transmitted message, and the de-activation of the DE (Driver Enable) signal.
 166:Drivers/STM32L4xx_HAL_Driver/Src/stm32l4xx_hal_uart_ex.c ****   *       It is expressed in sample time units (1/8 or 1/16 bit time, depending on the
 167:Drivers/STM32L4xx_HAL_Driver/Src/stm32l4xx_hal_uart_ex.c ****   *       oversampling rate).
 168:Drivers/STM32L4xx_HAL_Driver/Src/stm32l4xx_hal_uart_ex.c ****   * @retval HAL status
 169:Drivers/STM32L4xx_HAL_Driver/Src/stm32l4xx_hal_uart_ex.c ****   */
 170:Drivers/STM32L4xx_HAL_Driver/Src/stm32l4xx_hal_uart_ex.c **** HAL_StatusTypeDef HAL_RS485Ex_Init(UART_HandleTypeDef *huart, uint32_t Polarity, uint32_t Assertion
 171:Drivers/STM32L4xx_HAL_Driver/Src/stm32l4xx_hal_uart_ex.c ****                                    uint32_t DeassertionTime)
 172:Drivers/STM32L4xx_HAL_Driver/Src/stm32l4xx_hal_uart_ex.c **** {
 173:Drivers/STM32L4xx_HAL_Driver/Src/stm32l4xx_hal_uart_ex.c ****   uint32_t temp;
 174:Drivers/STM32L4xx_HAL_Driver/Src/stm32l4xx_hal_uart_ex.c **** 
 175:Drivers/STM32L4xx_HAL_Driver/Src/stm32l4xx_hal_uart_ex.c ****   /* Check the UART handle allocation */
 176:Drivers/STM32L4xx_HAL_Driver/Src/stm32l4xx_hal_uart_ex.c ****   if (huart == NULL)
 177:Drivers/STM32L4xx_HAL_Driver/Src/stm32l4xx_hal_uart_ex.c ****   {
 178:Drivers/STM32L4xx_HAL_Driver/Src/stm32l4xx_hal_uart_ex.c ****     return HAL_ERROR;
 179:Drivers/STM32L4xx_HAL_Driver/Src/stm32l4xx_hal_uart_ex.c ****   }
 180:Drivers/STM32L4xx_HAL_Driver/Src/stm32l4xx_hal_uart_ex.c ****   /* Check the Driver Enable UART instance */
 181:Drivers/STM32L4xx_HAL_Driver/Src/stm32l4xx_hal_uart_ex.c ****   assert_param(IS_UART_DRIVER_ENABLE_INSTANCE(huart->Instance));
 182:Drivers/STM32L4xx_HAL_Driver/Src/stm32l4xx_hal_uart_ex.c **** 
 183:Drivers/STM32L4xx_HAL_Driver/Src/stm32l4xx_hal_uart_ex.c ****   /* Check the Driver Enable polarity */
 184:Drivers/STM32L4xx_HAL_Driver/Src/stm32l4xx_hal_uart_ex.c ****   assert_param(IS_UART_DE_POLARITY(Polarity));
 185:Drivers/STM32L4xx_HAL_Driver/Src/stm32l4xx_hal_uart_ex.c **** 
 186:Drivers/STM32L4xx_HAL_Driver/Src/stm32l4xx_hal_uart_ex.c ****   /* Check the Driver Enable assertion time */
 187:Drivers/STM32L4xx_HAL_Driver/Src/stm32l4xx_hal_uart_ex.c ****   assert_param(IS_UART_ASSERTIONTIME(AssertionTime));
 188:Drivers/STM32L4xx_HAL_Driver/Src/stm32l4xx_hal_uart_ex.c **** 
 189:Drivers/STM32L4xx_HAL_Driver/Src/stm32l4xx_hal_uart_ex.c ****   /* Check the Driver Enable deassertion time */
 190:Drivers/STM32L4xx_HAL_Driver/Src/stm32l4xx_hal_uart_ex.c ****   assert_param(IS_UART_DEASSERTIONTIME(DeassertionTime));
 191:Drivers/STM32L4xx_HAL_Driver/Src/stm32l4xx_hal_uart_ex.c **** 
 192:Drivers/STM32L4xx_HAL_Driver/Src/stm32l4xx_hal_uart_ex.c ****   if (huart->gState == HAL_UART_STATE_RESET)
 193:Drivers/STM32L4xx_HAL_Driver/Src/stm32l4xx_hal_uart_ex.c ****   {
 194:Drivers/STM32L4xx_HAL_Driver/Src/stm32l4xx_hal_uart_ex.c ****     /* Allocate lock resource and initialize it */
 195:Drivers/STM32L4xx_HAL_Driver/Src/stm32l4xx_hal_uart_ex.c ****     huart->Lock = HAL_UNLOCKED;
 196:Drivers/STM32L4xx_HAL_Driver/Src/stm32l4xx_hal_uart_ex.c **** 
 197:Drivers/STM32L4xx_HAL_Driver/Src/stm32l4xx_hal_uart_ex.c **** #if (USE_HAL_UART_REGISTER_CALLBACKS == 1)
 198:Drivers/STM32L4xx_HAL_Driver/Src/stm32l4xx_hal_uart_ex.c ****     UART_InitCallbacksToDefault(huart);
 199:Drivers/STM32L4xx_HAL_Driver/Src/stm32l4xx_hal_uart_ex.c **** 
 200:Drivers/STM32L4xx_HAL_Driver/Src/stm32l4xx_hal_uart_ex.c ****     if (huart->MspInitCallback == NULL)
 201:Drivers/STM32L4xx_HAL_Driver/Src/stm32l4xx_hal_uart_ex.c ****     {
 202:Drivers/STM32L4xx_HAL_Driver/Src/stm32l4xx_hal_uart_ex.c ****       huart->MspInitCallback = HAL_UART_MspInit;
 203:Drivers/STM32L4xx_HAL_Driver/Src/stm32l4xx_hal_uart_ex.c ****     }
ARM GAS  /tmp/ccz3bLTm.s 			page 5


 204:Drivers/STM32L4xx_HAL_Driver/Src/stm32l4xx_hal_uart_ex.c **** 
 205:Drivers/STM32L4xx_HAL_Driver/Src/stm32l4xx_hal_uart_ex.c ****     /* Init the low level hardware */
 206:Drivers/STM32L4xx_HAL_Driver/Src/stm32l4xx_hal_uart_ex.c ****     huart->MspInitCallback(huart);
 207:Drivers/STM32L4xx_HAL_Driver/Src/stm32l4xx_hal_uart_ex.c **** #else
 208:Drivers/STM32L4xx_HAL_Driver/Src/stm32l4xx_hal_uart_ex.c ****     /* Init the low level hardware : GPIO, CLOCK, CORTEX */
 209:Drivers/STM32L4xx_HAL_Driver/Src/stm32l4xx_hal_uart_ex.c ****     HAL_UART_MspInit(huart);
 210:Drivers/STM32L4xx_HAL_Driver/Src/stm32l4xx_hal_uart_ex.c **** #endif /* (USE_HAL_UART_REGISTER_CALLBACKS) */
 211:Drivers/STM32L4xx_HAL_Driver/Src/stm32l4xx_hal_uart_ex.c ****   }
 212:Drivers/STM32L4xx_HAL_Driver/Src/stm32l4xx_hal_uart_ex.c **** 
 213:Drivers/STM32L4xx_HAL_Driver/Src/stm32l4xx_hal_uart_ex.c ****   huart->gState = HAL_UART_STATE_BUSY;
 214:Drivers/STM32L4xx_HAL_Driver/Src/stm32l4xx_hal_uart_ex.c **** 
 215:Drivers/STM32L4xx_HAL_Driver/Src/stm32l4xx_hal_uart_ex.c ****   /* Disable the Peripheral */
 216:Drivers/STM32L4xx_HAL_Driver/Src/stm32l4xx_hal_uart_ex.c ****   __HAL_UART_DISABLE(huart);
 217:Drivers/STM32L4xx_HAL_Driver/Src/stm32l4xx_hal_uart_ex.c **** 
 218:Drivers/STM32L4xx_HAL_Driver/Src/stm32l4xx_hal_uart_ex.c ****   /* Set the UART Communication parameters */
 219:Drivers/STM32L4xx_HAL_Driver/Src/stm32l4xx_hal_uart_ex.c ****   if (UART_SetConfig(huart) == HAL_ERROR)
 220:Drivers/STM32L4xx_HAL_Driver/Src/stm32l4xx_hal_uart_ex.c ****   {
 221:Drivers/STM32L4xx_HAL_Driver/Src/stm32l4xx_hal_uart_ex.c ****     return HAL_ERROR;
 222:Drivers/STM32L4xx_HAL_Driver/Src/stm32l4xx_hal_uart_ex.c ****   }
 223:Drivers/STM32L4xx_HAL_Driver/Src/stm32l4xx_hal_uart_ex.c **** 
 224:Drivers/STM32L4xx_HAL_Driver/Src/stm32l4xx_hal_uart_ex.c ****   if (huart->AdvancedInit.AdvFeatureInit != UART_ADVFEATURE_NO_INIT)
 225:Drivers/STM32L4xx_HAL_Driver/Src/stm32l4xx_hal_uart_ex.c ****   {
 226:Drivers/STM32L4xx_HAL_Driver/Src/stm32l4xx_hal_uart_ex.c ****     UART_AdvFeatureConfig(huart);
 227:Drivers/STM32L4xx_HAL_Driver/Src/stm32l4xx_hal_uart_ex.c ****   }
 228:Drivers/STM32L4xx_HAL_Driver/Src/stm32l4xx_hal_uart_ex.c **** 
 229:Drivers/STM32L4xx_HAL_Driver/Src/stm32l4xx_hal_uart_ex.c ****   /* Enable the Driver Enable mode by setting the DEM bit in the CR3 register */
 230:Drivers/STM32L4xx_HAL_Driver/Src/stm32l4xx_hal_uart_ex.c ****   SET_BIT(huart->Instance->CR3, USART_CR3_DEM);
 231:Drivers/STM32L4xx_HAL_Driver/Src/stm32l4xx_hal_uart_ex.c **** 
 232:Drivers/STM32L4xx_HAL_Driver/Src/stm32l4xx_hal_uart_ex.c ****   /* Set the Driver Enable polarity */
 233:Drivers/STM32L4xx_HAL_Driver/Src/stm32l4xx_hal_uart_ex.c ****   MODIFY_REG(huart->Instance->CR3, USART_CR3_DEP, Polarity);
 234:Drivers/STM32L4xx_HAL_Driver/Src/stm32l4xx_hal_uart_ex.c **** 
 235:Drivers/STM32L4xx_HAL_Driver/Src/stm32l4xx_hal_uart_ex.c ****   /* Set the Driver Enable assertion and deassertion times */
 236:Drivers/STM32L4xx_HAL_Driver/Src/stm32l4xx_hal_uart_ex.c ****   temp = (AssertionTime << UART_CR1_DEAT_ADDRESS_LSB_POS);
 237:Drivers/STM32L4xx_HAL_Driver/Src/stm32l4xx_hal_uart_ex.c ****   temp |= (DeassertionTime << UART_CR1_DEDT_ADDRESS_LSB_POS);
 238:Drivers/STM32L4xx_HAL_Driver/Src/stm32l4xx_hal_uart_ex.c ****   MODIFY_REG(huart->Instance->CR1, (USART_CR1_DEDT | USART_CR1_DEAT), temp);
 239:Drivers/STM32L4xx_HAL_Driver/Src/stm32l4xx_hal_uart_ex.c **** 
 240:Drivers/STM32L4xx_HAL_Driver/Src/stm32l4xx_hal_uart_ex.c ****   /* Enable the Peripheral */
 241:Drivers/STM32L4xx_HAL_Driver/Src/stm32l4xx_hal_uart_ex.c ****   __HAL_UART_ENABLE(huart);
 242:Drivers/STM32L4xx_HAL_Driver/Src/stm32l4xx_hal_uart_ex.c **** 
 243:Drivers/STM32L4xx_HAL_Driver/Src/stm32l4xx_hal_uart_ex.c ****   /* TEACK and/or REACK to check before moving huart->gState and huart->RxState to Ready */
 244:Drivers/STM32L4xx_HAL_Driver/Src/stm32l4xx_hal_uart_ex.c ****   return (UART_CheckIdleState(huart));
 245:Drivers/STM32L4xx_HAL_Driver/Src/stm32l4xx_hal_uart_ex.c **** }
 246:Drivers/STM32L4xx_HAL_Driver/Src/stm32l4xx_hal_uart_ex.c **** 
 247:Drivers/STM32L4xx_HAL_Driver/Src/stm32l4xx_hal_uart_ex.c **** /**
 248:Drivers/STM32L4xx_HAL_Driver/Src/stm32l4xx_hal_uart_ex.c ****   * @}
 249:Drivers/STM32L4xx_HAL_Driver/Src/stm32l4xx_hal_uart_ex.c ****   */
 250:Drivers/STM32L4xx_HAL_Driver/Src/stm32l4xx_hal_uart_ex.c **** 
 251:Drivers/STM32L4xx_HAL_Driver/Src/stm32l4xx_hal_uart_ex.c **** /** @defgroup UARTEx_Exported_Functions_Group2 IO operation functions
 252:Drivers/STM32L4xx_HAL_Driver/Src/stm32l4xx_hal_uart_ex.c ****   *  @brief Extended functions
 253:Drivers/STM32L4xx_HAL_Driver/Src/stm32l4xx_hal_uart_ex.c ****   *
 254:Drivers/STM32L4xx_HAL_Driver/Src/stm32l4xx_hal_uart_ex.c **** @verbatim
 255:Drivers/STM32L4xx_HAL_Driver/Src/stm32l4xx_hal_uart_ex.c ****  ===============================================================================
 256:Drivers/STM32L4xx_HAL_Driver/Src/stm32l4xx_hal_uart_ex.c ****                       ##### IO operation functions #####
 257:Drivers/STM32L4xx_HAL_Driver/Src/stm32l4xx_hal_uart_ex.c ****  ===============================================================================
 258:Drivers/STM32L4xx_HAL_Driver/Src/stm32l4xx_hal_uart_ex.c ****     This subsection provides a set of Wakeup and FIFO mode related callback functions.
 259:Drivers/STM32L4xx_HAL_Driver/Src/stm32l4xx_hal_uart_ex.c **** 
 260:Drivers/STM32L4xx_HAL_Driver/Src/stm32l4xx_hal_uart_ex.c ****     (#) Wakeup from Stop mode Callback:
ARM GAS  /tmp/ccz3bLTm.s 			page 6


 261:Drivers/STM32L4xx_HAL_Driver/Src/stm32l4xx_hal_uart_ex.c ****         (+) HAL_UARTEx_WakeupCallback()
 262:Drivers/STM32L4xx_HAL_Driver/Src/stm32l4xx_hal_uart_ex.c **** 
 263:Drivers/STM32L4xx_HAL_Driver/Src/stm32l4xx_hal_uart_ex.c ****     (#) TX/RX Fifos Callbacks:
 264:Drivers/STM32L4xx_HAL_Driver/Src/stm32l4xx_hal_uart_ex.c ****         (+) HAL_UARTEx_RxFifoFullCallback()
 265:Drivers/STM32L4xx_HAL_Driver/Src/stm32l4xx_hal_uart_ex.c ****         (+) HAL_UARTEx_TxFifoEmptyCallback()
 266:Drivers/STM32L4xx_HAL_Driver/Src/stm32l4xx_hal_uart_ex.c **** 
 267:Drivers/STM32L4xx_HAL_Driver/Src/stm32l4xx_hal_uart_ex.c **** @endverbatim
 268:Drivers/STM32L4xx_HAL_Driver/Src/stm32l4xx_hal_uart_ex.c ****   * @{
 269:Drivers/STM32L4xx_HAL_Driver/Src/stm32l4xx_hal_uart_ex.c ****   */
 270:Drivers/STM32L4xx_HAL_Driver/Src/stm32l4xx_hal_uart_ex.c **** 
 271:Drivers/STM32L4xx_HAL_Driver/Src/stm32l4xx_hal_uart_ex.c **** /**
 272:Drivers/STM32L4xx_HAL_Driver/Src/stm32l4xx_hal_uart_ex.c ****   * @brief UART wakeup from Stop mode callback.
 273:Drivers/STM32L4xx_HAL_Driver/Src/stm32l4xx_hal_uart_ex.c ****   * @param huart UART handle.
 274:Drivers/STM32L4xx_HAL_Driver/Src/stm32l4xx_hal_uart_ex.c ****   * @retval None
 275:Drivers/STM32L4xx_HAL_Driver/Src/stm32l4xx_hal_uart_ex.c ****   */
 276:Drivers/STM32L4xx_HAL_Driver/Src/stm32l4xx_hal_uart_ex.c **** __weak void HAL_UARTEx_WakeupCallback(UART_HandleTypeDef *huart)
 277:Drivers/STM32L4xx_HAL_Driver/Src/stm32l4xx_hal_uart_ex.c **** {
 278:Drivers/STM32L4xx_HAL_Driver/Src/stm32l4xx_hal_uart_ex.c ****   /* Prevent unused argument(s) compilation warning */
 279:Drivers/STM32L4xx_HAL_Driver/Src/stm32l4xx_hal_uart_ex.c ****   UNUSED(huart);
 280:Drivers/STM32L4xx_HAL_Driver/Src/stm32l4xx_hal_uart_ex.c **** 
 281:Drivers/STM32L4xx_HAL_Driver/Src/stm32l4xx_hal_uart_ex.c ****   /* NOTE : This function should not be modified, when the callback is needed,
 282:Drivers/STM32L4xx_HAL_Driver/Src/stm32l4xx_hal_uart_ex.c ****             the HAL_UARTEx_WakeupCallback can be implemented in the user file.
 283:Drivers/STM32L4xx_HAL_Driver/Src/stm32l4xx_hal_uart_ex.c ****    */
 284:Drivers/STM32L4xx_HAL_Driver/Src/stm32l4xx_hal_uart_ex.c **** }
 285:Drivers/STM32L4xx_HAL_Driver/Src/stm32l4xx_hal_uart_ex.c **** 
 286:Drivers/STM32L4xx_HAL_Driver/Src/stm32l4xx_hal_uart_ex.c **** #if defined(USART_CR1_FIFOEN)
 287:Drivers/STM32L4xx_HAL_Driver/Src/stm32l4xx_hal_uart_ex.c **** /**
 288:Drivers/STM32L4xx_HAL_Driver/Src/stm32l4xx_hal_uart_ex.c ****   * @brief  UART RX Fifo full callback.
 289:Drivers/STM32L4xx_HAL_Driver/Src/stm32l4xx_hal_uart_ex.c ****   * @param  huart UART handle.
 290:Drivers/STM32L4xx_HAL_Driver/Src/stm32l4xx_hal_uart_ex.c ****   * @retval None
 291:Drivers/STM32L4xx_HAL_Driver/Src/stm32l4xx_hal_uart_ex.c ****   */
 292:Drivers/STM32L4xx_HAL_Driver/Src/stm32l4xx_hal_uart_ex.c **** __weak void HAL_UARTEx_RxFifoFullCallback(UART_HandleTypeDef *huart)
 293:Drivers/STM32L4xx_HAL_Driver/Src/stm32l4xx_hal_uart_ex.c **** {
 294:Drivers/STM32L4xx_HAL_Driver/Src/stm32l4xx_hal_uart_ex.c ****   /* Prevent unused argument(s) compilation warning */
 295:Drivers/STM32L4xx_HAL_Driver/Src/stm32l4xx_hal_uart_ex.c ****   UNUSED(huart);
 296:Drivers/STM32L4xx_HAL_Driver/Src/stm32l4xx_hal_uart_ex.c **** 
 297:Drivers/STM32L4xx_HAL_Driver/Src/stm32l4xx_hal_uart_ex.c ****   /* NOTE : This function should not be modified, when the callback is needed,
 298:Drivers/STM32L4xx_HAL_Driver/Src/stm32l4xx_hal_uart_ex.c ****             the HAL_UARTEx_RxFifoFullCallback can be implemented in the user file.
 299:Drivers/STM32L4xx_HAL_Driver/Src/stm32l4xx_hal_uart_ex.c ****    */
 300:Drivers/STM32L4xx_HAL_Driver/Src/stm32l4xx_hal_uart_ex.c **** }
 301:Drivers/STM32L4xx_HAL_Driver/Src/stm32l4xx_hal_uart_ex.c **** 
 302:Drivers/STM32L4xx_HAL_Driver/Src/stm32l4xx_hal_uart_ex.c **** /**
 303:Drivers/STM32L4xx_HAL_Driver/Src/stm32l4xx_hal_uart_ex.c ****   * @brief  UART TX Fifo empty callback.
 304:Drivers/STM32L4xx_HAL_Driver/Src/stm32l4xx_hal_uart_ex.c ****   * @param  huart UART handle.
 305:Drivers/STM32L4xx_HAL_Driver/Src/stm32l4xx_hal_uart_ex.c ****   * @retval None
 306:Drivers/STM32L4xx_HAL_Driver/Src/stm32l4xx_hal_uart_ex.c ****   */
 307:Drivers/STM32L4xx_HAL_Driver/Src/stm32l4xx_hal_uart_ex.c **** __weak void HAL_UARTEx_TxFifoEmptyCallback(UART_HandleTypeDef *huart)
 308:Drivers/STM32L4xx_HAL_Driver/Src/stm32l4xx_hal_uart_ex.c **** {
 309:Drivers/STM32L4xx_HAL_Driver/Src/stm32l4xx_hal_uart_ex.c ****   /* Prevent unused argument(s) compilation warning */
 310:Drivers/STM32L4xx_HAL_Driver/Src/stm32l4xx_hal_uart_ex.c ****   UNUSED(huart);
 311:Drivers/STM32L4xx_HAL_Driver/Src/stm32l4xx_hal_uart_ex.c **** 
 312:Drivers/STM32L4xx_HAL_Driver/Src/stm32l4xx_hal_uart_ex.c ****   /* NOTE : This function should not be modified, when the callback is needed,
 313:Drivers/STM32L4xx_HAL_Driver/Src/stm32l4xx_hal_uart_ex.c ****             the HAL_UARTEx_TxFifoEmptyCallback can be implemented in the user file.
 314:Drivers/STM32L4xx_HAL_Driver/Src/stm32l4xx_hal_uart_ex.c ****    */
 315:Drivers/STM32L4xx_HAL_Driver/Src/stm32l4xx_hal_uart_ex.c **** }
 316:Drivers/STM32L4xx_HAL_Driver/Src/stm32l4xx_hal_uart_ex.c **** #endif /* USART_CR1_FIFOEN */
 317:Drivers/STM32L4xx_HAL_Driver/Src/stm32l4xx_hal_uart_ex.c **** 
ARM GAS  /tmp/ccz3bLTm.s 			page 7


 318:Drivers/STM32L4xx_HAL_Driver/Src/stm32l4xx_hal_uart_ex.c **** /**
 319:Drivers/STM32L4xx_HAL_Driver/Src/stm32l4xx_hal_uart_ex.c ****   * @}
 320:Drivers/STM32L4xx_HAL_Driver/Src/stm32l4xx_hal_uart_ex.c ****   */
 321:Drivers/STM32L4xx_HAL_Driver/Src/stm32l4xx_hal_uart_ex.c **** 
 322:Drivers/STM32L4xx_HAL_Driver/Src/stm32l4xx_hal_uart_ex.c **** /** @defgroup UARTEx_Exported_Functions_Group3 Peripheral Control functions
 323:Drivers/STM32L4xx_HAL_Driver/Src/stm32l4xx_hal_uart_ex.c ****   * @brief    Extended Peripheral Control functions
 324:Drivers/STM32L4xx_HAL_Driver/Src/stm32l4xx_hal_uart_ex.c ****   *
 325:Drivers/STM32L4xx_HAL_Driver/Src/stm32l4xx_hal_uart_ex.c **** @verbatim
 326:Drivers/STM32L4xx_HAL_Driver/Src/stm32l4xx_hal_uart_ex.c ****  ===============================================================================
 327:Drivers/STM32L4xx_HAL_Driver/Src/stm32l4xx_hal_uart_ex.c ****                       ##### Peripheral Control functions #####
 328:Drivers/STM32L4xx_HAL_Driver/Src/stm32l4xx_hal_uart_ex.c ****  ===============================================================================
 329:Drivers/STM32L4xx_HAL_Driver/Src/stm32l4xx_hal_uart_ex.c ****     [..] This section provides the following functions:
 330:Drivers/STM32L4xx_HAL_Driver/Src/stm32l4xx_hal_uart_ex.c ****      (+) HAL_UARTEx_EnableClockStopMode() API enables the UART clock (HSI or LSE only) during stop 
 331:Drivers/STM32L4xx_HAL_Driver/Src/stm32l4xx_hal_uart_ex.c ****      (+) HAL_UARTEx_DisableClockStopMode() API disables the above functionality
 332:Drivers/STM32L4xx_HAL_Driver/Src/stm32l4xx_hal_uart_ex.c ****      (+) HAL_MultiProcessorEx_AddressLength_Set() API optionally sets the UART node address
 333:Drivers/STM32L4xx_HAL_Driver/Src/stm32l4xx_hal_uart_ex.c ****          detection length to more than 4 bits for multiprocessor address mark wake up.
 334:Drivers/STM32L4xx_HAL_Driver/Src/stm32l4xx_hal_uart_ex.c ****      (+) HAL_UARTEx_StopModeWakeUpSourceConfig() API defines the wake-up from stop mode
 335:Drivers/STM32L4xx_HAL_Driver/Src/stm32l4xx_hal_uart_ex.c ****          trigger: address match, Start Bit detection or RXNE bit status.
 336:Drivers/STM32L4xx_HAL_Driver/Src/stm32l4xx_hal_uart_ex.c ****      (+) HAL_UARTEx_EnableStopMode() API enables the UART to wake up the MCU from stop mode
 337:Drivers/STM32L4xx_HAL_Driver/Src/stm32l4xx_hal_uart_ex.c ****      (+) HAL_UARTEx_DisableStopMode() API disables the above functionality
 338:Drivers/STM32L4xx_HAL_Driver/Src/stm32l4xx_hal_uart_ex.c ****      (+) HAL_UARTEx_EnableFifoMode() API enables the FIFO mode
 339:Drivers/STM32L4xx_HAL_Driver/Src/stm32l4xx_hal_uart_ex.c ****      (+) HAL_UARTEx_DisableFifoMode() API disables the FIFO mode
 340:Drivers/STM32L4xx_HAL_Driver/Src/stm32l4xx_hal_uart_ex.c ****      (+) HAL_UARTEx_SetTxFifoThreshold() API sets the TX FIFO threshold
 341:Drivers/STM32L4xx_HAL_Driver/Src/stm32l4xx_hal_uart_ex.c ****      (+) HAL_UARTEx_SetRxFifoThreshold() API sets the RX FIFO threshold
 342:Drivers/STM32L4xx_HAL_Driver/Src/stm32l4xx_hal_uart_ex.c **** 
 343:Drivers/STM32L4xx_HAL_Driver/Src/stm32l4xx_hal_uart_ex.c **** @endverbatim
 344:Drivers/STM32L4xx_HAL_Driver/Src/stm32l4xx_hal_uart_ex.c ****   * @{
 345:Drivers/STM32L4xx_HAL_Driver/Src/stm32l4xx_hal_uart_ex.c ****   */
 346:Drivers/STM32L4xx_HAL_Driver/Src/stm32l4xx_hal_uart_ex.c **** 
 347:Drivers/STM32L4xx_HAL_Driver/Src/stm32l4xx_hal_uart_ex.c **** 
 348:Drivers/STM32L4xx_HAL_Driver/Src/stm32l4xx_hal_uart_ex.c **** 
 349:Drivers/STM32L4xx_HAL_Driver/Src/stm32l4xx_hal_uart_ex.c **** #if defined(USART_CR3_UCESM)
 350:Drivers/STM32L4xx_HAL_Driver/Src/stm32l4xx_hal_uart_ex.c **** /**
 351:Drivers/STM32L4xx_HAL_Driver/Src/stm32l4xx_hal_uart_ex.c ****   * @brief  Keep UART Clock enabled when in Stop Mode.
 352:Drivers/STM32L4xx_HAL_Driver/Src/stm32l4xx_hal_uart_ex.c ****   * @note   When the USART clock source is configured to be LSE or HSI, it is possible to keep enab
 353:Drivers/STM32L4xx_HAL_Driver/Src/stm32l4xx_hal_uart_ex.c ****   *         this clock during STOP mode by setting the UCESM bit in USART_CR3 control register.
 354:Drivers/STM32L4xx_HAL_Driver/Src/stm32l4xx_hal_uart_ex.c ****   * @note   When LPUART is used to wakeup from stop with LSE is selected as LPUART clock source,
 355:Drivers/STM32L4xx_HAL_Driver/Src/stm32l4xx_hal_uart_ex.c ****   *         and desired baud rate is 9600 baud, the bit UCESM bit in LPUART_CR3 control register mu
 356:Drivers/STM32L4xx_HAL_Driver/Src/stm32l4xx_hal_uart_ex.c ****   * @param  huart UART handle.
 357:Drivers/STM32L4xx_HAL_Driver/Src/stm32l4xx_hal_uart_ex.c ****   * @retval HAL status
 358:Drivers/STM32L4xx_HAL_Driver/Src/stm32l4xx_hal_uart_ex.c ****   */
 359:Drivers/STM32L4xx_HAL_Driver/Src/stm32l4xx_hal_uart_ex.c **** HAL_StatusTypeDef HAL_UARTEx_EnableClockStopMode(UART_HandleTypeDef *huart)
 360:Drivers/STM32L4xx_HAL_Driver/Src/stm32l4xx_hal_uart_ex.c **** {
 361:Drivers/STM32L4xx_HAL_Driver/Src/stm32l4xx_hal_uart_ex.c ****   /* Process Locked */
 362:Drivers/STM32L4xx_HAL_Driver/Src/stm32l4xx_hal_uart_ex.c ****   __HAL_LOCK(huart);
 363:Drivers/STM32L4xx_HAL_Driver/Src/stm32l4xx_hal_uart_ex.c **** 
 364:Drivers/STM32L4xx_HAL_Driver/Src/stm32l4xx_hal_uart_ex.c ****   /* Set UCESM bit */
 365:Drivers/STM32L4xx_HAL_Driver/Src/stm32l4xx_hal_uart_ex.c ****   SET_BIT(huart->Instance->CR3, USART_CR3_UCESM);
 366:Drivers/STM32L4xx_HAL_Driver/Src/stm32l4xx_hal_uart_ex.c **** 
 367:Drivers/STM32L4xx_HAL_Driver/Src/stm32l4xx_hal_uart_ex.c ****   /* Process Unlocked */
 368:Drivers/STM32L4xx_HAL_Driver/Src/stm32l4xx_hal_uart_ex.c ****   __HAL_UNLOCK(huart);
 369:Drivers/STM32L4xx_HAL_Driver/Src/stm32l4xx_hal_uart_ex.c **** 
 370:Drivers/STM32L4xx_HAL_Driver/Src/stm32l4xx_hal_uart_ex.c ****   return HAL_OK;
 371:Drivers/STM32L4xx_HAL_Driver/Src/stm32l4xx_hal_uart_ex.c **** }
 372:Drivers/STM32L4xx_HAL_Driver/Src/stm32l4xx_hal_uart_ex.c **** 
 373:Drivers/STM32L4xx_HAL_Driver/Src/stm32l4xx_hal_uart_ex.c **** /**
 374:Drivers/STM32L4xx_HAL_Driver/Src/stm32l4xx_hal_uart_ex.c ****   * @brief  Disable UART Clock when in Stop Mode.
ARM GAS  /tmp/ccz3bLTm.s 			page 8


 375:Drivers/STM32L4xx_HAL_Driver/Src/stm32l4xx_hal_uart_ex.c ****   * @param  huart UART handle.
 376:Drivers/STM32L4xx_HAL_Driver/Src/stm32l4xx_hal_uart_ex.c ****   * @retval HAL status
 377:Drivers/STM32L4xx_HAL_Driver/Src/stm32l4xx_hal_uart_ex.c ****   */
 378:Drivers/STM32L4xx_HAL_Driver/Src/stm32l4xx_hal_uart_ex.c **** HAL_StatusTypeDef HAL_UARTEx_DisableClockStopMode(UART_HandleTypeDef *huart)
 379:Drivers/STM32L4xx_HAL_Driver/Src/stm32l4xx_hal_uart_ex.c **** {
 380:Drivers/STM32L4xx_HAL_Driver/Src/stm32l4xx_hal_uart_ex.c ****   /* Process Locked */
 381:Drivers/STM32L4xx_HAL_Driver/Src/stm32l4xx_hal_uart_ex.c ****   __HAL_LOCK(huart);
 382:Drivers/STM32L4xx_HAL_Driver/Src/stm32l4xx_hal_uart_ex.c **** 
 383:Drivers/STM32L4xx_HAL_Driver/Src/stm32l4xx_hal_uart_ex.c ****   /* Clear UCESM bit */
 384:Drivers/STM32L4xx_HAL_Driver/Src/stm32l4xx_hal_uart_ex.c ****   CLEAR_BIT(huart->Instance->CR3, USART_CR3_UCESM);
 385:Drivers/STM32L4xx_HAL_Driver/Src/stm32l4xx_hal_uart_ex.c **** 
 386:Drivers/STM32L4xx_HAL_Driver/Src/stm32l4xx_hal_uart_ex.c ****   /* Process Unlocked */
 387:Drivers/STM32L4xx_HAL_Driver/Src/stm32l4xx_hal_uart_ex.c ****   __HAL_UNLOCK(huart);
 388:Drivers/STM32L4xx_HAL_Driver/Src/stm32l4xx_hal_uart_ex.c **** 
 389:Drivers/STM32L4xx_HAL_Driver/Src/stm32l4xx_hal_uart_ex.c ****   return HAL_OK;
 390:Drivers/STM32L4xx_HAL_Driver/Src/stm32l4xx_hal_uart_ex.c **** }
 391:Drivers/STM32L4xx_HAL_Driver/Src/stm32l4xx_hal_uart_ex.c **** #endif /* USART_CR3_UCESM */
 392:Drivers/STM32L4xx_HAL_Driver/Src/stm32l4xx_hal_uart_ex.c **** 
 393:Drivers/STM32L4xx_HAL_Driver/Src/stm32l4xx_hal_uart_ex.c **** /**
 394:Drivers/STM32L4xx_HAL_Driver/Src/stm32l4xx_hal_uart_ex.c ****   * @brief By default in multiprocessor mode, when the wake up method is set
 395:Drivers/STM32L4xx_HAL_Driver/Src/stm32l4xx_hal_uart_ex.c ****   *        to address mark, the UART handles only 4-bit long addresses detection;
 396:Drivers/STM32L4xx_HAL_Driver/Src/stm32l4xx_hal_uart_ex.c ****   *        this API allows to enable longer addresses detection (6-, 7- or 8-bit
 397:Drivers/STM32L4xx_HAL_Driver/Src/stm32l4xx_hal_uart_ex.c ****   *        long).
 398:Drivers/STM32L4xx_HAL_Driver/Src/stm32l4xx_hal_uart_ex.c ****   * @note  Addresses detection lengths are: 6-bit address detection in 7-bit data mode,
 399:Drivers/STM32L4xx_HAL_Driver/Src/stm32l4xx_hal_uart_ex.c ****   *        7-bit address detection in 8-bit data mode, 8-bit address detection in 9-bit data mode.
 400:Drivers/STM32L4xx_HAL_Driver/Src/stm32l4xx_hal_uart_ex.c ****   * @param huart         UART handle.
 401:Drivers/STM32L4xx_HAL_Driver/Src/stm32l4xx_hal_uart_ex.c ****   * @param AddressLength This parameter can be one of the following values:
 402:Drivers/STM32L4xx_HAL_Driver/Src/stm32l4xx_hal_uart_ex.c ****   *          @arg @ref UART_ADDRESS_DETECT_4B 4-bit long address
 403:Drivers/STM32L4xx_HAL_Driver/Src/stm32l4xx_hal_uart_ex.c ****   *          @arg @ref UART_ADDRESS_DETECT_7B 6-, 7- or 8-bit long address
 404:Drivers/STM32L4xx_HAL_Driver/Src/stm32l4xx_hal_uart_ex.c ****   * @retval HAL status
 405:Drivers/STM32L4xx_HAL_Driver/Src/stm32l4xx_hal_uart_ex.c ****   */
 406:Drivers/STM32L4xx_HAL_Driver/Src/stm32l4xx_hal_uart_ex.c **** HAL_StatusTypeDef HAL_MultiProcessorEx_AddressLength_Set(UART_HandleTypeDef *huart, uint32_t Addres
 407:Drivers/STM32L4xx_HAL_Driver/Src/stm32l4xx_hal_uart_ex.c **** {
 408:Drivers/STM32L4xx_HAL_Driver/Src/stm32l4xx_hal_uart_ex.c ****   /* Check the UART handle allocation */
 409:Drivers/STM32L4xx_HAL_Driver/Src/stm32l4xx_hal_uart_ex.c ****   if (huart == NULL)
 410:Drivers/STM32L4xx_HAL_Driver/Src/stm32l4xx_hal_uart_ex.c ****   {
 411:Drivers/STM32L4xx_HAL_Driver/Src/stm32l4xx_hal_uart_ex.c ****     return HAL_ERROR;
 412:Drivers/STM32L4xx_HAL_Driver/Src/stm32l4xx_hal_uart_ex.c ****   }
 413:Drivers/STM32L4xx_HAL_Driver/Src/stm32l4xx_hal_uart_ex.c **** 
 414:Drivers/STM32L4xx_HAL_Driver/Src/stm32l4xx_hal_uart_ex.c ****   /* Check the address length parameter */
 415:Drivers/STM32L4xx_HAL_Driver/Src/stm32l4xx_hal_uart_ex.c ****   assert_param(IS_UART_ADDRESSLENGTH_DETECT(AddressLength));
 416:Drivers/STM32L4xx_HAL_Driver/Src/stm32l4xx_hal_uart_ex.c **** 
 417:Drivers/STM32L4xx_HAL_Driver/Src/stm32l4xx_hal_uart_ex.c ****   huart->gState = HAL_UART_STATE_BUSY;
 418:Drivers/STM32L4xx_HAL_Driver/Src/stm32l4xx_hal_uart_ex.c **** 
 419:Drivers/STM32L4xx_HAL_Driver/Src/stm32l4xx_hal_uart_ex.c ****   /* Disable the Peripheral */
 420:Drivers/STM32L4xx_HAL_Driver/Src/stm32l4xx_hal_uart_ex.c ****   __HAL_UART_DISABLE(huart);
 421:Drivers/STM32L4xx_HAL_Driver/Src/stm32l4xx_hal_uart_ex.c **** 
 422:Drivers/STM32L4xx_HAL_Driver/Src/stm32l4xx_hal_uart_ex.c ****   /* Set the address length */
 423:Drivers/STM32L4xx_HAL_Driver/Src/stm32l4xx_hal_uart_ex.c ****   MODIFY_REG(huart->Instance->CR2, USART_CR2_ADDM7, AddressLength);
 424:Drivers/STM32L4xx_HAL_Driver/Src/stm32l4xx_hal_uart_ex.c **** 
 425:Drivers/STM32L4xx_HAL_Driver/Src/stm32l4xx_hal_uart_ex.c ****   /* Enable the Peripheral */
 426:Drivers/STM32L4xx_HAL_Driver/Src/stm32l4xx_hal_uart_ex.c ****   __HAL_UART_ENABLE(huart);
 427:Drivers/STM32L4xx_HAL_Driver/Src/stm32l4xx_hal_uart_ex.c **** 
 428:Drivers/STM32L4xx_HAL_Driver/Src/stm32l4xx_hal_uart_ex.c ****   /* TEACK and/or REACK to check before moving huart->gState to Ready */
 429:Drivers/STM32L4xx_HAL_Driver/Src/stm32l4xx_hal_uart_ex.c ****   return (UART_CheckIdleState(huart));
 430:Drivers/STM32L4xx_HAL_Driver/Src/stm32l4xx_hal_uart_ex.c **** }
 431:Drivers/STM32L4xx_HAL_Driver/Src/stm32l4xx_hal_uart_ex.c **** 
ARM GAS  /tmp/ccz3bLTm.s 			page 9


 432:Drivers/STM32L4xx_HAL_Driver/Src/stm32l4xx_hal_uart_ex.c **** /**
 433:Drivers/STM32L4xx_HAL_Driver/Src/stm32l4xx_hal_uart_ex.c ****   * @brief Set Wakeup from Stop mode interrupt flag selection.
 434:Drivers/STM32L4xx_HAL_Driver/Src/stm32l4xx_hal_uart_ex.c ****   * @note It is the application responsibility to enable the interrupt used as
 435:Drivers/STM32L4xx_HAL_Driver/Src/stm32l4xx_hal_uart_ex.c ****   *       usart_wkup interrupt source before entering low-power mode.
 436:Drivers/STM32L4xx_HAL_Driver/Src/stm32l4xx_hal_uart_ex.c ****   * @param huart           UART handle.
 437:Drivers/STM32L4xx_HAL_Driver/Src/stm32l4xx_hal_uart_ex.c ****   * @param WakeUpSelection Address match, Start Bit detection or RXNE/RXFNE bit status.
 438:Drivers/STM32L4xx_HAL_Driver/Src/stm32l4xx_hal_uart_ex.c ****   *          This parameter can be one of the following values:
 439:Drivers/STM32L4xx_HAL_Driver/Src/stm32l4xx_hal_uart_ex.c ****   *          @arg @ref UART_WAKEUP_ON_ADDRESS
 440:Drivers/STM32L4xx_HAL_Driver/Src/stm32l4xx_hal_uart_ex.c ****   *          @arg @ref UART_WAKEUP_ON_STARTBIT
 441:Drivers/STM32L4xx_HAL_Driver/Src/stm32l4xx_hal_uart_ex.c ****   *          @arg @ref UART_WAKEUP_ON_READDATA_NONEMPTY
 442:Drivers/STM32L4xx_HAL_Driver/Src/stm32l4xx_hal_uart_ex.c ****   * @retval HAL status
 443:Drivers/STM32L4xx_HAL_Driver/Src/stm32l4xx_hal_uart_ex.c ****   */
 444:Drivers/STM32L4xx_HAL_Driver/Src/stm32l4xx_hal_uart_ex.c **** HAL_StatusTypeDef HAL_UARTEx_StopModeWakeUpSourceConfig(UART_HandleTypeDef *huart, UART_WakeUpTypeD
 445:Drivers/STM32L4xx_HAL_Driver/Src/stm32l4xx_hal_uart_ex.c **** {
 446:Drivers/STM32L4xx_HAL_Driver/Src/stm32l4xx_hal_uart_ex.c ****   HAL_StatusTypeDef status = HAL_OK;
 447:Drivers/STM32L4xx_HAL_Driver/Src/stm32l4xx_hal_uart_ex.c ****   uint32_t tickstart;
 448:Drivers/STM32L4xx_HAL_Driver/Src/stm32l4xx_hal_uart_ex.c **** 
 449:Drivers/STM32L4xx_HAL_Driver/Src/stm32l4xx_hal_uart_ex.c ****   /* check the wake-up from stop mode UART instance */
 450:Drivers/STM32L4xx_HAL_Driver/Src/stm32l4xx_hal_uart_ex.c ****   assert_param(IS_UART_WAKEUP_FROMSTOP_INSTANCE(huart->Instance));
 451:Drivers/STM32L4xx_HAL_Driver/Src/stm32l4xx_hal_uart_ex.c ****   /* check the wake-up selection parameter */
 452:Drivers/STM32L4xx_HAL_Driver/Src/stm32l4xx_hal_uart_ex.c ****   assert_param(IS_UART_WAKEUP_SELECTION(WakeUpSelection.WakeUpEvent));
 453:Drivers/STM32L4xx_HAL_Driver/Src/stm32l4xx_hal_uart_ex.c **** 
 454:Drivers/STM32L4xx_HAL_Driver/Src/stm32l4xx_hal_uart_ex.c ****   /* Process Locked */
 455:Drivers/STM32L4xx_HAL_Driver/Src/stm32l4xx_hal_uart_ex.c ****   __HAL_LOCK(huart);
 456:Drivers/STM32L4xx_HAL_Driver/Src/stm32l4xx_hal_uart_ex.c **** 
 457:Drivers/STM32L4xx_HAL_Driver/Src/stm32l4xx_hal_uart_ex.c ****   huart->gState = HAL_UART_STATE_BUSY;
 458:Drivers/STM32L4xx_HAL_Driver/Src/stm32l4xx_hal_uart_ex.c **** 
 459:Drivers/STM32L4xx_HAL_Driver/Src/stm32l4xx_hal_uart_ex.c ****   /* Disable the Peripheral */
 460:Drivers/STM32L4xx_HAL_Driver/Src/stm32l4xx_hal_uart_ex.c ****   __HAL_UART_DISABLE(huart);
 461:Drivers/STM32L4xx_HAL_Driver/Src/stm32l4xx_hal_uart_ex.c **** 
 462:Drivers/STM32L4xx_HAL_Driver/Src/stm32l4xx_hal_uart_ex.c ****   /* Set the wake-up selection scheme */
 463:Drivers/STM32L4xx_HAL_Driver/Src/stm32l4xx_hal_uart_ex.c ****   MODIFY_REG(huart->Instance->CR3, USART_CR3_WUS, WakeUpSelection.WakeUpEvent);
 464:Drivers/STM32L4xx_HAL_Driver/Src/stm32l4xx_hal_uart_ex.c **** 
 465:Drivers/STM32L4xx_HAL_Driver/Src/stm32l4xx_hal_uart_ex.c ****   if (WakeUpSelection.WakeUpEvent == UART_WAKEUP_ON_ADDRESS)
 466:Drivers/STM32L4xx_HAL_Driver/Src/stm32l4xx_hal_uart_ex.c ****   {
 467:Drivers/STM32L4xx_HAL_Driver/Src/stm32l4xx_hal_uart_ex.c ****     UARTEx_Wakeup_AddressConfig(huart, WakeUpSelection);
 468:Drivers/STM32L4xx_HAL_Driver/Src/stm32l4xx_hal_uart_ex.c ****   }
 469:Drivers/STM32L4xx_HAL_Driver/Src/stm32l4xx_hal_uart_ex.c **** 
 470:Drivers/STM32L4xx_HAL_Driver/Src/stm32l4xx_hal_uart_ex.c ****   /* Enable the Peripheral */
 471:Drivers/STM32L4xx_HAL_Driver/Src/stm32l4xx_hal_uart_ex.c ****   __HAL_UART_ENABLE(huart);
 472:Drivers/STM32L4xx_HAL_Driver/Src/stm32l4xx_hal_uart_ex.c **** 
 473:Drivers/STM32L4xx_HAL_Driver/Src/stm32l4xx_hal_uart_ex.c ****   /* Init tickstart for timeout managment*/
 474:Drivers/STM32L4xx_HAL_Driver/Src/stm32l4xx_hal_uart_ex.c ****   tickstart = HAL_GetTick();
 475:Drivers/STM32L4xx_HAL_Driver/Src/stm32l4xx_hal_uart_ex.c **** 
 476:Drivers/STM32L4xx_HAL_Driver/Src/stm32l4xx_hal_uart_ex.c ****   /* Wait until REACK flag is set */
 477:Drivers/STM32L4xx_HAL_Driver/Src/stm32l4xx_hal_uart_ex.c ****   if (UART_WaitOnFlagUntilTimeout(huart, USART_ISR_REACK, RESET, tickstart, HAL_UART_TIMEOUT_VALUE)
 478:Drivers/STM32L4xx_HAL_Driver/Src/stm32l4xx_hal_uart_ex.c ****   {
 479:Drivers/STM32L4xx_HAL_Driver/Src/stm32l4xx_hal_uart_ex.c ****     status = HAL_TIMEOUT;
 480:Drivers/STM32L4xx_HAL_Driver/Src/stm32l4xx_hal_uart_ex.c ****   }
 481:Drivers/STM32L4xx_HAL_Driver/Src/stm32l4xx_hal_uart_ex.c ****   else
 482:Drivers/STM32L4xx_HAL_Driver/Src/stm32l4xx_hal_uart_ex.c ****   {
 483:Drivers/STM32L4xx_HAL_Driver/Src/stm32l4xx_hal_uart_ex.c ****     /* Initialize the UART State */
 484:Drivers/STM32L4xx_HAL_Driver/Src/stm32l4xx_hal_uart_ex.c ****     huart->gState = HAL_UART_STATE_READY;
 485:Drivers/STM32L4xx_HAL_Driver/Src/stm32l4xx_hal_uart_ex.c ****   }
 486:Drivers/STM32L4xx_HAL_Driver/Src/stm32l4xx_hal_uart_ex.c **** 
 487:Drivers/STM32L4xx_HAL_Driver/Src/stm32l4xx_hal_uart_ex.c ****   /* Process Unlocked */
 488:Drivers/STM32L4xx_HAL_Driver/Src/stm32l4xx_hal_uart_ex.c ****   __HAL_UNLOCK(huart);
ARM GAS  /tmp/ccz3bLTm.s 			page 10


 489:Drivers/STM32L4xx_HAL_Driver/Src/stm32l4xx_hal_uart_ex.c **** 
 490:Drivers/STM32L4xx_HAL_Driver/Src/stm32l4xx_hal_uart_ex.c ****   return status;
 491:Drivers/STM32L4xx_HAL_Driver/Src/stm32l4xx_hal_uart_ex.c **** }
 492:Drivers/STM32L4xx_HAL_Driver/Src/stm32l4xx_hal_uart_ex.c **** 
 493:Drivers/STM32L4xx_HAL_Driver/Src/stm32l4xx_hal_uart_ex.c **** /**
 494:Drivers/STM32L4xx_HAL_Driver/Src/stm32l4xx_hal_uart_ex.c ****   * @brief Enable UART Stop Mode.
 495:Drivers/STM32L4xx_HAL_Driver/Src/stm32l4xx_hal_uart_ex.c ****   * @note The UART is able to wake up the MCU from Stop 1 mode as long as UART clock is HSI or LSE.
 496:Drivers/STM32L4xx_HAL_Driver/Src/stm32l4xx_hal_uart_ex.c ****   * @param huart UART handle.
 497:Drivers/STM32L4xx_HAL_Driver/Src/stm32l4xx_hal_uart_ex.c ****   * @retval HAL status
 498:Drivers/STM32L4xx_HAL_Driver/Src/stm32l4xx_hal_uart_ex.c ****   */
 499:Drivers/STM32L4xx_HAL_Driver/Src/stm32l4xx_hal_uart_ex.c **** HAL_StatusTypeDef HAL_UARTEx_EnableStopMode(UART_HandleTypeDef *huart)
 500:Drivers/STM32L4xx_HAL_Driver/Src/stm32l4xx_hal_uart_ex.c **** {
 501:Drivers/STM32L4xx_HAL_Driver/Src/stm32l4xx_hal_uart_ex.c ****   /* Process Locked */
 502:Drivers/STM32L4xx_HAL_Driver/Src/stm32l4xx_hal_uart_ex.c ****   __HAL_LOCK(huart);
 503:Drivers/STM32L4xx_HAL_Driver/Src/stm32l4xx_hal_uart_ex.c **** 
 504:Drivers/STM32L4xx_HAL_Driver/Src/stm32l4xx_hal_uart_ex.c ****   /* Set UESM bit */
 505:Drivers/STM32L4xx_HAL_Driver/Src/stm32l4xx_hal_uart_ex.c ****   SET_BIT(huart->Instance->CR1, USART_CR1_UESM);
 506:Drivers/STM32L4xx_HAL_Driver/Src/stm32l4xx_hal_uart_ex.c **** 
 507:Drivers/STM32L4xx_HAL_Driver/Src/stm32l4xx_hal_uart_ex.c ****   /* Process Unlocked */
 508:Drivers/STM32L4xx_HAL_Driver/Src/stm32l4xx_hal_uart_ex.c ****   __HAL_UNLOCK(huart);
 509:Drivers/STM32L4xx_HAL_Driver/Src/stm32l4xx_hal_uart_ex.c **** 
 510:Drivers/STM32L4xx_HAL_Driver/Src/stm32l4xx_hal_uart_ex.c ****   return HAL_OK;
 511:Drivers/STM32L4xx_HAL_Driver/Src/stm32l4xx_hal_uart_ex.c **** }
 512:Drivers/STM32L4xx_HAL_Driver/Src/stm32l4xx_hal_uart_ex.c **** 
 513:Drivers/STM32L4xx_HAL_Driver/Src/stm32l4xx_hal_uart_ex.c **** /**
 514:Drivers/STM32L4xx_HAL_Driver/Src/stm32l4xx_hal_uart_ex.c ****   * @brief Disable UART Stop Mode.
 515:Drivers/STM32L4xx_HAL_Driver/Src/stm32l4xx_hal_uart_ex.c ****   * @param huart UART handle.
 516:Drivers/STM32L4xx_HAL_Driver/Src/stm32l4xx_hal_uart_ex.c ****   * @retval HAL status
 517:Drivers/STM32L4xx_HAL_Driver/Src/stm32l4xx_hal_uart_ex.c ****   */
 518:Drivers/STM32L4xx_HAL_Driver/Src/stm32l4xx_hal_uart_ex.c **** HAL_StatusTypeDef HAL_UARTEx_DisableStopMode(UART_HandleTypeDef *huart)
 519:Drivers/STM32L4xx_HAL_Driver/Src/stm32l4xx_hal_uart_ex.c **** {
 520:Drivers/STM32L4xx_HAL_Driver/Src/stm32l4xx_hal_uart_ex.c ****   /* Process Locked */
 521:Drivers/STM32L4xx_HAL_Driver/Src/stm32l4xx_hal_uart_ex.c ****   __HAL_LOCK(huart);
 522:Drivers/STM32L4xx_HAL_Driver/Src/stm32l4xx_hal_uart_ex.c **** 
 523:Drivers/STM32L4xx_HAL_Driver/Src/stm32l4xx_hal_uart_ex.c ****   /* Clear UESM bit */
 524:Drivers/STM32L4xx_HAL_Driver/Src/stm32l4xx_hal_uart_ex.c ****   CLEAR_BIT(huart->Instance->CR1, USART_CR1_UESM);
 525:Drivers/STM32L4xx_HAL_Driver/Src/stm32l4xx_hal_uart_ex.c **** 
 526:Drivers/STM32L4xx_HAL_Driver/Src/stm32l4xx_hal_uart_ex.c ****   /* Process Unlocked */
 527:Drivers/STM32L4xx_HAL_Driver/Src/stm32l4xx_hal_uart_ex.c ****   __HAL_UNLOCK(huart);
 528:Drivers/STM32L4xx_HAL_Driver/Src/stm32l4xx_hal_uart_ex.c **** 
 529:Drivers/STM32L4xx_HAL_Driver/Src/stm32l4xx_hal_uart_ex.c ****   return HAL_OK;
 530:Drivers/STM32L4xx_HAL_Driver/Src/stm32l4xx_hal_uart_ex.c **** }
 531:Drivers/STM32L4xx_HAL_Driver/Src/stm32l4xx_hal_uart_ex.c **** 
 532:Drivers/STM32L4xx_HAL_Driver/Src/stm32l4xx_hal_uart_ex.c **** #if defined(USART_CR1_FIFOEN)
 533:Drivers/STM32L4xx_HAL_Driver/Src/stm32l4xx_hal_uart_ex.c **** /**
 534:Drivers/STM32L4xx_HAL_Driver/Src/stm32l4xx_hal_uart_ex.c ****   * @brief  Enable the FIFO mode.
 535:Drivers/STM32L4xx_HAL_Driver/Src/stm32l4xx_hal_uart_ex.c ****   * @param huart      UART handle.
 536:Drivers/STM32L4xx_HAL_Driver/Src/stm32l4xx_hal_uart_ex.c ****   * @retval HAL status
 537:Drivers/STM32L4xx_HAL_Driver/Src/stm32l4xx_hal_uart_ex.c ****   */
 538:Drivers/STM32L4xx_HAL_Driver/Src/stm32l4xx_hal_uart_ex.c **** HAL_StatusTypeDef HAL_UARTEx_EnableFifoMode(UART_HandleTypeDef *huart)
 539:Drivers/STM32L4xx_HAL_Driver/Src/stm32l4xx_hal_uart_ex.c **** {
 540:Drivers/STM32L4xx_HAL_Driver/Src/stm32l4xx_hal_uart_ex.c ****   uint32_t tmpcr1;
 541:Drivers/STM32L4xx_HAL_Driver/Src/stm32l4xx_hal_uart_ex.c **** 
 542:Drivers/STM32L4xx_HAL_Driver/Src/stm32l4xx_hal_uart_ex.c ****   /* Check parameters */
 543:Drivers/STM32L4xx_HAL_Driver/Src/stm32l4xx_hal_uart_ex.c ****   assert_param(IS_UART_FIFO_INSTANCE(huart->Instance));
 544:Drivers/STM32L4xx_HAL_Driver/Src/stm32l4xx_hal_uart_ex.c **** 
 545:Drivers/STM32L4xx_HAL_Driver/Src/stm32l4xx_hal_uart_ex.c ****   /* Process Locked */
ARM GAS  /tmp/ccz3bLTm.s 			page 11


 546:Drivers/STM32L4xx_HAL_Driver/Src/stm32l4xx_hal_uart_ex.c ****   __HAL_LOCK(huart);
 547:Drivers/STM32L4xx_HAL_Driver/Src/stm32l4xx_hal_uart_ex.c **** 
 548:Drivers/STM32L4xx_HAL_Driver/Src/stm32l4xx_hal_uart_ex.c ****   huart->gState = HAL_UART_STATE_BUSY;
 549:Drivers/STM32L4xx_HAL_Driver/Src/stm32l4xx_hal_uart_ex.c **** 
 550:Drivers/STM32L4xx_HAL_Driver/Src/stm32l4xx_hal_uart_ex.c ****   /* Save actual UART configuration */
 551:Drivers/STM32L4xx_HAL_Driver/Src/stm32l4xx_hal_uart_ex.c ****   tmpcr1 = READ_REG(huart->Instance->CR1);
 552:Drivers/STM32L4xx_HAL_Driver/Src/stm32l4xx_hal_uart_ex.c **** 
 553:Drivers/STM32L4xx_HAL_Driver/Src/stm32l4xx_hal_uart_ex.c ****   /* Disable UART */
 554:Drivers/STM32L4xx_HAL_Driver/Src/stm32l4xx_hal_uart_ex.c ****   __HAL_UART_DISABLE(huart);
 555:Drivers/STM32L4xx_HAL_Driver/Src/stm32l4xx_hal_uart_ex.c **** 
 556:Drivers/STM32L4xx_HAL_Driver/Src/stm32l4xx_hal_uart_ex.c ****   /* Enable FIFO mode */
 557:Drivers/STM32L4xx_HAL_Driver/Src/stm32l4xx_hal_uart_ex.c ****   SET_BIT(tmpcr1, USART_CR1_FIFOEN);
 558:Drivers/STM32L4xx_HAL_Driver/Src/stm32l4xx_hal_uart_ex.c ****   huart->FifoMode = UART_FIFOMODE_ENABLE;
 559:Drivers/STM32L4xx_HAL_Driver/Src/stm32l4xx_hal_uart_ex.c **** 
 560:Drivers/STM32L4xx_HAL_Driver/Src/stm32l4xx_hal_uart_ex.c ****   /* Restore UART configuration */
 561:Drivers/STM32L4xx_HAL_Driver/Src/stm32l4xx_hal_uart_ex.c ****   WRITE_REG(huart->Instance->CR1, tmpcr1);
 562:Drivers/STM32L4xx_HAL_Driver/Src/stm32l4xx_hal_uart_ex.c **** 
 563:Drivers/STM32L4xx_HAL_Driver/Src/stm32l4xx_hal_uart_ex.c ****   /* Determine the number of data to process during RX/TX ISR execution */
 564:Drivers/STM32L4xx_HAL_Driver/Src/stm32l4xx_hal_uart_ex.c ****   UARTEx_SetNbDataToProcess(huart);
 565:Drivers/STM32L4xx_HAL_Driver/Src/stm32l4xx_hal_uart_ex.c **** 
 566:Drivers/STM32L4xx_HAL_Driver/Src/stm32l4xx_hal_uart_ex.c ****   huart->gState = HAL_UART_STATE_READY;
 567:Drivers/STM32L4xx_HAL_Driver/Src/stm32l4xx_hal_uart_ex.c **** 
 568:Drivers/STM32L4xx_HAL_Driver/Src/stm32l4xx_hal_uart_ex.c ****   /* Process Unlocked */
 569:Drivers/STM32L4xx_HAL_Driver/Src/stm32l4xx_hal_uart_ex.c ****   __HAL_UNLOCK(huart);
 570:Drivers/STM32L4xx_HAL_Driver/Src/stm32l4xx_hal_uart_ex.c **** 
 571:Drivers/STM32L4xx_HAL_Driver/Src/stm32l4xx_hal_uart_ex.c ****   return HAL_OK;
 572:Drivers/STM32L4xx_HAL_Driver/Src/stm32l4xx_hal_uart_ex.c **** }
 573:Drivers/STM32L4xx_HAL_Driver/Src/stm32l4xx_hal_uart_ex.c **** 
 574:Drivers/STM32L4xx_HAL_Driver/Src/stm32l4xx_hal_uart_ex.c **** /**
 575:Drivers/STM32L4xx_HAL_Driver/Src/stm32l4xx_hal_uart_ex.c ****   * @brief  Disable the FIFO mode.
 576:Drivers/STM32L4xx_HAL_Driver/Src/stm32l4xx_hal_uart_ex.c ****   * @param huart      UART handle.
 577:Drivers/STM32L4xx_HAL_Driver/Src/stm32l4xx_hal_uart_ex.c ****   * @retval HAL status
 578:Drivers/STM32L4xx_HAL_Driver/Src/stm32l4xx_hal_uart_ex.c ****   */
 579:Drivers/STM32L4xx_HAL_Driver/Src/stm32l4xx_hal_uart_ex.c **** HAL_StatusTypeDef HAL_UARTEx_DisableFifoMode(UART_HandleTypeDef *huart)
 580:Drivers/STM32L4xx_HAL_Driver/Src/stm32l4xx_hal_uart_ex.c **** {
 581:Drivers/STM32L4xx_HAL_Driver/Src/stm32l4xx_hal_uart_ex.c ****   uint32_t tmpcr1;
 582:Drivers/STM32L4xx_HAL_Driver/Src/stm32l4xx_hal_uart_ex.c **** 
 583:Drivers/STM32L4xx_HAL_Driver/Src/stm32l4xx_hal_uart_ex.c ****   /* Check parameters */
 584:Drivers/STM32L4xx_HAL_Driver/Src/stm32l4xx_hal_uart_ex.c ****   assert_param(IS_UART_FIFO_INSTANCE(huart->Instance));
 585:Drivers/STM32L4xx_HAL_Driver/Src/stm32l4xx_hal_uart_ex.c **** 
 586:Drivers/STM32L4xx_HAL_Driver/Src/stm32l4xx_hal_uart_ex.c ****   /* Process Locked */
 587:Drivers/STM32L4xx_HAL_Driver/Src/stm32l4xx_hal_uart_ex.c ****   __HAL_LOCK(huart);
 588:Drivers/STM32L4xx_HAL_Driver/Src/stm32l4xx_hal_uart_ex.c **** 
 589:Drivers/STM32L4xx_HAL_Driver/Src/stm32l4xx_hal_uart_ex.c ****   huart->gState = HAL_UART_STATE_BUSY;
 590:Drivers/STM32L4xx_HAL_Driver/Src/stm32l4xx_hal_uart_ex.c **** 
 591:Drivers/STM32L4xx_HAL_Driver/Src/stm32l4xx_hal_uart_ex.c ****   /* Save actual UART configuration */
 592:Drivers/STM32L4xx_HAL_Driver/Src/stm32l4xx_hal_uart_ex.c ****   tmpcr1 = READ_REG(huart->Instance->CR1);
 593:Drivers/STM32L4xx_HAL_Driver/Src/stm32l4xx_hal_uart_ex.c **** 
 594:Drivers/STM32L4xx_HAL_Driver/Src/stm32l4xx_hal_uart_ex.c ****   /* Disable UART */
 595:Drivers/STM32L4xx_HAL_Driver/Src/stm32l4xx_hal_uart_ex.c ****   __HAL_UART_DISABLE(huart);
 596:Drivers/STM32L4xx_HAL_Driver/Src/stm32l4xx_hal_uart_ex.c **** 
 597:Drivers/STM32L4xx_HAL_Driver/Src/stm32l4xx_hal_uart_ex.c ****   /* Enable FIFO mode */
 598:Drivers/STM32L4xx_HAL_Driver/Src/stm32l4xx_hal_uart_ex.c ****   CLEAR_BIT(tmpcr1, USART_CR1_FIFOEN);
 599:Drivers/STM32L4xx_HAL_Driver/Src/stm32l4xx_hal_uart_ex.c ****   huart->FifoMode = UART_FIFOMODE_DISABLE;
 600:Drivers/STM32L4xx_HAL_Driver/Src/stm32l4xx_hal_uart_ex.c **** 
 601:Drivers/STM32L4xx_HAL_Driver/Src/stm32l4xx_hal_uart_ex.c ****   /* Restore UART configuration */
 602:Drivers/STM32L4xx_HAL_Driver/Src/stm32l4xx_hal_uart_ex.c ****   WRITE_REG(huart->Instance->CR1, tmpcr1);
ARM GAS  /tmp/ccz3bLTm.s 			page 12


 603:Drivers/STM32L4xx_HAL_Driver/Src/stm32l4xx_hal_uart_ex.c **** 
 604:Drivers/STM32L4xx_HAL_Driver/Src/stm32l4xx_hal_uart_ex.c ****   huart->gState = HAL_UART_STATE_READY;
 605:Drivers/STM32L4xx_HAL_Driver/Src/stm32l4xx_hal_uart_ex.c **** 
 606:Drivers/STM32L4xx_HAL_Driver/Src/stm32l4xx_hal_uart_ex.c ****   /* Process Unlocked */
 607:Drivers/STM32L4xx_HAL_Driver/Src/stm32l4xx_hal_uart_ex.c ****   __HAL_UNLOCK(huart);
 608:Drivers/STM32L4xx_HAL_Driver/Src/stm32l4xx_hal_uart_ex.c **** 
 609:Drivers/STM32L4xx_HAL_Driver/Src/stm32l4xx_hal_uart_ex.c ****   return HAL_OK;
 610:Drivers/STM32L4xx_HAL_Driver/Src/stm32l4xx_hal_uart_ex.c **** }
 611:Drivers/STM32L4xx_HAL_Driver/Src/stm32l4xx_hal_uart_ex.c **** 
 612:Drivers/STM32L4xx_HAL_Driver/Src/stm32l4xx_hal_uart_ex.c **** /**
 613:Drivers/STM32L4xx_HAL_Driver/Src/stm32l4xx_hal_uart_ex.c ****   * @brief  Set the TXFIFO threshold.
 614:Drivers/STM32L4xx_HAL_Driver/Src/stm32l4xx_hal_uart_ex.c ****   * @param huart      UART handle.
 615:Drivers/STM32L4xx_HAL_Driver/Src/stm32l4xx_hal_uart_ex.c ****   * @param Threshold  TX FIFO threshold value
 616:Drivers/STM32L4xx_HAL_Driver/Src/stm32l4xx_hal_uart_ex.c ****   *          This parameter can be one of the following values:
 617:Drivers/STM32L4xx_HAL_Driver/Src/stm32l4xx_hal_uart_ex.c ****   *            @arg @ref UART_TXFIFO_THRESHOLD_1_8
 618:Drivers/STM32L4xx_HAL_Driver/Src/stm32l4xx_hal_uart_ex.c ****   *            @arg @ref UART_TXFIFO_THRESHOLD_1_4
 619:Drivers/STM32L4xx_HAL_Driver/Src/stm32l4xx_hal_uart_ex.c ****   *            @arg @ref UART_TXFIFO_THRESHOLD_1_2
 620:Drivers/STM32L4xx_HAL_Driver/Src/stm32l4xx_hal_uart_ex.c ****   *            @arg @ref UART_TXFIFO_THRESHOLD_3_4
 621:Drivers/STM32L4xx_HAL_Driver/Src/stm32l4xx_hal_uart_ex.c ****   *            @arg @ref UART_TXFIFO_THRESHOLD_7_8
 622:Drivers/STM32L4xx_HAL_Driver/Src/stm32l4xx_hal_uart_ex.c ****   *            @arg @ref UART_TXFIFO_THRESHOLD_8_8
 623:Drivers/STM32L4xx_HAL_Driver/Src/stm32l4xx_hal_uart_ex.c ****   * @retval HAL status
 624:Drivers/STM32L4xx_HAL_Driver/Src/stm32l4xx_hal_uart_ex.c ****   */
 625:Drivers/STM32L4xx_HAL_Driver/Src/stm32l4xx_hal_uart_ex.c **** HAL_StatusTypeDef HAL_UARTEx_SetTxFifoThreshold(UART_HandleTypeDef *huart, uint32_t Threshold)
 626:Drivers/STM32L4xx_HAL_Driver/Src/stm32l4xx_hal_uart_ex.c **** {
 627:Drivers/STM32L4xx_HAL_Driver/Src/stm32l4xx_hal_uart_ex.c ****   uint32_t tmpcr1;
 628:Drivers/STM32L4xx_HAL_Driver/Src/stm32l4xx_hal_uart_ex.c **** 
 629:Drivers/STM32L4xx_HAL_Driver/Src/stm32l4xx_hal_uart_ex.c ****   /* Check parameters */
 630:Drivers/STM32L4xx_HAL_Driver/Src/stm32l4xx_hal_uart_ex.c ****   assert_param(IS_UART_FIFO_INSTANCE(huart->Instance));
 631:Drivers/STM32L4xx_HAL_Driver/Src/stm32l4xx_hal_uart_ex.c ****   assert_param(IS_UART_TXFIFO_THRESHOLD(Threshold));
 632:Drivers/STM32L4xx_HAL_Driver/Src/stm32l4xx_hal_uart_ex.c **** 
 633:Drivers/STM32L4xx_HAL_Driver/Src/stm32l4xx_hal_uart_ex.c ****   /* Process Locked */
 634:Drivers/STM32L4xx_HAL_Driver/Src/stm32l4xx_hal_uart_ex.c ****   __HAL_LOCK(huart);
 635:Drivers/STM32L4xx_HAL_Driver/Src/stm32l4xx_hal_uart_ex.c **** 
 636:Drivers/STM32L4xx_HAL_Driver/Src/stm32l4xx_hal_uart_ex.c ****   huart->gState = HAL_UART_STATE_BUSY;
 637:Drivers/STM32L4xx_HAL_Driver/Src/stm32l4xx_hal_uart_ex.c **** 
 638:Drivers/STM32L4xx_HAL_Driver/Src/stm32l4xx_hal_uart_ex.c ****   /* Save actual UART configuration */
 639:Drivers/STM32L4xx_HAL_Driver/Src/stm32l4xx_hal_uart_ex.c ****   tmpcr1 = READ_REG(huart->Instance->CR1);
 640:Drivers/STM32L4xx_HAL_Driver/Src/stm32l4xx_hal_uart_ex.c **** 
 641:Drivers/STM32L4xx_HAL_Driver/Src/stm32l4xx_hal_uart_ex.c ****   /* Disable UART */
 642:Drivers/STM32L4xx_HAL_Driver/Src/stm32l4xx_hal_uart_ex.c ****   __HAL_UART_DISABLE(huart);
 643:Drivers/STM32L4xx_HAL_Driver/Src/stm32l4xx_hal_uart_ex.c **** 
 644:Drivers/STM32L4xx_HAL_Driver/Src/stm32l4xx_hal_uart_ex.c ****   /* Update TX threshold configuration */
 645:Drivers/STM32L4xx_HAL_Driver/Src/stm32l4xx_hal_uart_ex.c ****   MODIFY_REG(huart->Instance->CR3, USART_CR3_TXFTCFG, Threshold);
 646:Drivers/STM32L4xx_HAL_Driver/Src/stm32l4xx_hal_uart_ex.c **** 
 647:Drivers/STM32L4xx_HAL_Driver/Src/stm32l4xx_hal_uart_ex.c ****   /* Determine the number of data to process during RX/TX ISR execution */
 648:Drivers/STM32L4xx_HAL_Driver/Src/stm32l4xx_hal_uart_ex.c ****   UARTEx_SetNbDataToProcess(huart);
 649:Drivers/STM32L4xx_HAL_Driver/Src/stm32l4xx_hal_uart_ex.c **** 
 650:Drivers/STM32L4xx_HAL_Driver/Src/stm32l4xx_hal_uart_ex.c ****   /* Restore UART configuration */
 651:Drivers/STM32L4xx_HAL_Driver/Src/stm32l4xx_hal_uart_ex.c ****   WRITE_REG(huart->Instance->CR1, tmpcr1);
 652:Drivers/STM32L4xx_HAL_Driver/Src/stm32l4xx_hal_uart_ex.c **** 
 653:Drivers/STM32L4xx_HAL_Driver/Src/stm32l4xx_hal_uart_ex.c ****   huart->gState = HAL_UART_STATE_READY;
 654:Drivers/STM32L4xx_HAL_Driver/Src/stm32l4xx_hal_uart_ex.c **** 
 655:Drivers/STM32L4xx_HAL_Driver/Src/stm32l4xx_hal_uart_ex.c ****   /* Process Unlocked */
 656:Drivers/STM32L4xx_HAL_Driver/Src/stm32l4xx_hal_uart_ex.c ****   __HAL_UNLOCK(huart);
 657:Drivers/STM32L4xx_HAL_Driver/Src/stm32l4xx_hal_uart_ex.c **** 
 658:Drivers/STM32L4xx_HAL_Driver/Src/stm32l4xx_hal_uart_ex.c ****   return HAL_OK;
 659:Drivers/STM32L4xx_HAL_Driver/Src/stm32l4xx_hal_uart_ex.c **** }
ARM GAS  /tmp/ccz3bLTm.s 			page 13


 660:Drivers/STM32L4xx_HAL_Driver/Src/stm32l4xx_hal_uart_ex.c **** 
 661:Drivers/STM32L4xx_HAL_Driver/Src/stm32l4xx_hal_uart_ex.c **** /**
 662:Drivers/STM32L4xx_HAL_Driver/Src/stm32l4xx_hal_uart_ex.c ****   * @brief  Set the RXFIFO threshold.
 663:Drivers/STM32L4xx_HAL_Driver/Src/stm32l4xx_hal_uart_ex.c ****   * @param huart      UART handle.
 664:Drivers/STM32L4xx_HAL_Driver/Src/stm32l4xx_hal_uart_ex.c ****   * @param Threshold  RX FIFO threshold value
 665:Drivers/STM32L4xx_HAL_Driver/Src/stm32l4xx_hal_uart_ex.c ****   *          This parameter can be one of the following values:
 666:Drivers/STM32L4xx_HAL_Driver/Src/stm32l4xx_hal_uart_ex.c ****   *            @arg @ref UART_RXFIFO_THRESHOLD_1_8
 667:Drivers/STM32L4xx_HAL_Driver/Src/stm32l4xx_hal_uart_ex.c ****   *            @arg @ref UART_RXFIFO_THRESHOLD_1_4
 668:Drivers/STM32L4xx_HAL_Driver/Src/stm32l4xx_hal_uart_ex.c ****   *            @arg @ref UART_RXFIFO_THRESHOLD_1_2
 669:Drivers/STM32L4xx_HAL_Driver/Src/stm32l4xx_hal_uart_ex.c ****   *            @arg @ref UART_RXFIFO_THRESHOLD_3_4
 670:Drivers/STM32L4xx_HAL_Driver/Src/stm32l4xx_hal_uart_ex.c ****   *            @arg @ref UART_RXFIFO_THRESHOLD_7_8
 671:Drivers/STM32L4xx_HAL_Driver/Src/stm32l4xx_hal_uart_ex.c ****   *            @arg @ref UART_RXFIFO_THRESHOLD_8_8
 672:Drivers/STM32L4xx_HAL_Driver/Src/stm32l4xx_hal_uart_ex.c ****   * @retval HAL status
 673:Drivers/STM32L4xx_HAL_Driver/Src/stm32l4xx_hal_uart_ex.c ****   */
 674:Drivers/STM32L4xx_HAL_Driver/Src/stm32l4xx_hal_uart_ex.c **** HAL_StatusTypeDef HAL_UARTEx_SetRxFifoThreshold(UART_HandleTypeDef *huart, uint32_t Threshold)
 675:Drivers/STM32L4xx_HAL_Driver/Src/stm32l4xx_hal_uart_ex.c **** {
 676:Drivers/STM32L4xx_HAL_Driver/Src/stm32l4xx_hal_uart_ex.c ****   uint32_t tmpcr1;
 677:Drivers/STM32L4xx_HAL_Driver/Src/stm32l4xx_hal_uart_ex.c **** 
 678:Drivers/STM32L4xx_HAL_Driver/Src/stm32l4xx_hal_uart_ex.c ****   /* Check the parameters */
 679:Drivers/STM32L4xx_HAL_Driver/Src/stm32l4xx_hal_uart_ex.c ****   assert_param(IS_UART_FIFO_INSTANCE(huart->Instance));
 680:Drivers/STM32L4xx_HAL_Driver/Src/stm32l4xx_hal_uart_ex.c ****   assert_param(IS_UART_RXFIFO_THRESHOLD(Threshold));
 681:Drivers/STM32L4xx_HAL_Driver/Src/stm32l4xx_hal_uart_ex.c **** 
 682:Drivers/STM32L4xx_HAL_Driver/Src/stm32l4xx_hal_uart_ex.c ****   /* Process Locked */
 683:Drivers/STM32L4xx_HAL_Driver/Src/stm32l4xx_hal_uart_ex.c ****   __HAL_LOCK(huart);
 684:Drivers/STM32L4xx_HAL_Driver/Src/stm32l4xx_hal_uart_ex.c **** 
 685:Drivers/STM32L4xx_HAL_Driver/Src/stm32l4xx_hal_uart_ex.c ****   huart->gState = HAL_UART_STATE_BUSY;
 686:Drivers/STM32L4xx_HAL_Driver/Src/stm32l4xx_hal_uart_ex.c **** 
 687:Drivers/STM32L4xx_HAL_Driver/Src/stm32l4xx_hal_uart_ex.c ****   /* Save actual UART configuration */
 688:Drivers/STM32L4xx_HAL_Driver/Src/stm32l4xx_hal_uart_ex.c ****   tmpcr1 = READ_REG(huart->Instance->CR1);
 689:Drivers/STM32L4xx_HAL_Driver/Src/stm32l4xx_hal_uart_ex.c **** 
 690:Drivers/STM32L4xx_HAL_Driver/Src/stm32l4xx_hal_uart_ex.c ****   /* Disable UART */
 691:Drivers/STM32L4xx_HAL_Driver/Src/stm32l4xx_hal_uart_ex.c ****   __HAL_UART_DISABLE(huart);
 692:Drivers/STM32L4xx_HAL_Driver/Src/stm32l4xx_hal_uart_ex.c **** 
 693:Drivers/STM32L4xx_HAL_Driver/Src/stm32l4xx_hal_uart_ex.c ****   /* Update RX threshold configuration */
 694:Drivers/STM32L4xx_HAL_Driver/Src/stm32l4xx_hal_uart_ex.c ****   MODIFY_REG(huart->Instance->CR3, USART_CR3_RXFTCFG, Threshold);
 695:Drivers/STM32L4xx_HAL_Driver/Src/stm32l4xx_hal_uart_ex.c **** 
 696:Drivers/STM32L4xx_HAL_Driver/Src/stm32l4xx_hal_uart_ex.c ****   /* Determine the number of data to process during RX/TX ISR execution */
 697:Drivers/STM32L4xx_HAL_Driver/Src/stm32l4xx_hal_uart_ex.c ****   UARTEx_SetNbDataToProcess(huart);
 698:Drivers/STM32L4xx_HAL_Driver/Src/stm32l4xx_hal_uart_ex.c **** 
 699:Drivers/STM32L4xx_HAL_Driver/Src/stm32l4xx_hal_uart_ex.c ****   /* Restore UART configuration */
 700:Drivers/STM32L4xx_HAL_Driver/Src/stm32l4xx_hal_uart_ex.c ****   WRITE_REG(huart->Instance->CR1, tmpcr1);
 701:Drivers/STM32L4xx_HAL_Driver/Src/stm32l4xx_hal_uart_ex.c **** 
 702:Drivers/STM32L4xx_HAL_Driver/Src/stm32l4xx_hal_uart_ex.c ****   huart->gState = HAL_UART_STATE_READY;
 703:Drivers/STM32L4xx_HAL_Driver/Src/stm32l4xx_hal_uart_ex.c **** 
 704:Drivers/STM32L4xx_HAL_Driver/Src/stm32l4xx_hal_uart_ex.c ****   /* Process Unlocked */
 705:Drivers/STM32L4xx_HAL_Driver/Src/stm32l4xx_hal_uart_ex.c ****   __HAL_UNLOCK(huart);
 706:Drivers/STM32L4xx_HAL_Driver/Src/stm32l4xx_hal_uart_ex.c **** 
 707:Drivers/STM32L4xx_HAL_Driver/Src/stm32l4xx_hal_uart_ex.c ****   return HAL_OK;
 708:Drivers/STM32L4xx_HAL_Driver/Src/stm32l4xx_hal_uart_ex.c **** }
 709:Drivers/STM32L4xx_HAL_Driver/Src/stm32l4xx_hal_uart_ex.c **** #endif /* USART_CR1_FIFOEN */
 710:Drivers/STM32L4xx_HAL_Driver/Src/stm32l4xx_hal_uart_ex.c **** 
 711:Drivers/STM32L4xx_HAL_Driver/Src/stm32l4xx_hal_uart_ex.c **** /**
 712:Drivers/STM32L4xx_HAL_Driver/Src/stm32l4xx_hal_uart_ex.c ****   * @}
 713:Drivers/STM32L4xx_HAL_Driver/Src/stm32l4xx_hal_uart_ex.c ****   */
 714:Drivers/STM32L4xx_HAL_Driver/Src/stm32l4xx_hal_uart_ex.c **** 
 715:Drivers/STM32L4xx_HAL_Driver/Src/stm32l4xx_hal_uart_ex.c **** /**
 716:Drivers/STM32L4xx_HAL_Driver/Src/stm32l4xx_hal_uart_ex.c ****   * @}
ARM GAS  /tmp/ccz3bLTm.s 			page 14


 717:Drivers/STM32L4xx_HAL_Driver/Src/stm32l4xx_hal_uart_ex.c ****   */
 718:Drivers/STM32L4xx_HAL_Driver/Src/stm32l4xx_hal_uart_ex.c **** 
 719:Drivers/STM32L4xx_HAL_Driver/Src/stm32l4xx_hal_uart_ex.c **** /** @addtogroup UARTEx_Private_Functions
 720:Drivers/STM32L4xx_HAL_Driver/Src/stm32l4xx_hal_uart_ex.c ****   * @{
 721:Drivers/STM32L4xx_HAL_Driver/Src/stm32l4xx_hal_uart_ex.c ****   */
 722:Drivers/STM32L4xx_HAL_Driver/Src/stm32l4xx_hal_uart_ex.c **** 
 723:Drivers/STM32L4xx_HAL_Driver/Src/stm32l4xx_hal_uart_ex.c **** /**
 724:Drivers/STM32L4xx_HAL_Driver/Src/stm32l4xx_hal_uart_ex.c ****   * @brief Initialize the UART wake-up from stop mode parameters when triggered by address detectio
 725:Drivers/STM32L4xx_HAL_Driver/Src/stm32l4xx_hal_uart_ex.c ****   * @param huart           UART handle.
 726:Drivers/STM32L4xx_HAL_Driver/Src/stm32l4xx_hal_uart_ex.c ****   * @param WakeUpSelection UART wake up from stop mode parameters.
 727:Drivers/STM32L4xx_HAL_Driver/Src/stm32l4xx_hal_uart_ex.c ****   * @retval None
 728:Drivers/STM32L4xx_HAL_Driver/Src/stm32l4xx_hal_uart_ex.c ****   */
 729:Drivers/STM32L4xx_HAL_Driver/Src/stm32l4xx_hal_uart_ex.c **** static void UARTEx_Wakeup_AddressConfig(UART_HandleTypeDef *huart, UART_WakeUpTypeDef WakeUpSelecti
 730:Drivers/STM32L4xx_HAL_Driver/Src/stm32l4xx_hal_uart_ex.c **** {
  27              		.loc 1 730 0
  28              		.cfi_startproc
  29              		@ args = 0, pretend = 0, frame = 8
  30              		@ frame_needed = 0, uses_anonymous_args = 0
  31              	.LVL0:
  32 0000 30B5     		push	{r4, r5, lr}
  33              	.LCFI0:
  34              		.cfi_def_cfa_offset 12
  35              		.cfi_offset 4, -12
  36              		.cfi_offset 5, -8
  37              		.cfi_offset 14, -4
  38 0002 83B0     		sub	sp, sp, #12
  39              	.LCFI1:
  40              		.cfi_def_cfa_offset 24
  41 0004 0546     		mov	r5, r0
  42 0006 02AB     		add	r3, sp, #8
  43 0008 03E90600 		stmdb	r3, {r1, r2}
 731:Drivers/STM32L4xx_HAL_Driver/Src/stm32l4xx_hal_uart_ex.c ****   assert_param(IS_UART_ADDRESSLENGTH_DETECT(WakeUpSelection.AddressLength));
  44              		.loc 1 731 0
  45 000c BDF80440 		ldrh	r4, [sp, #4]
  46 0010 34B1     		cbz	r4, .L2
  47              		.loc 1 731 0 is_stmt 0 discriminator 1
  48 0012 102C     		cmp	r4, #16
  49 0014 04D0     		beq	.L2
  50              		.loc 1 731 0 discriminator 2
  51 0016 40F2DB21 		movw	r1, #731
  52 001a 0A48     		ldr	r0, .L4
  53              	.LVL1:
  54 001c FFF7FEFF 		bl	assert_failed
  55              	.LVL2:
  56              	.L2:
 732:Drivers/STM32L4xx_HAL_Driver/Src/stm32l4xx_hal_uart_ex.c **** 
 733:Drivers/STM32L4xx_HAL_Driver/Src/stm32l4xx_hal_uart_ex.c ****   /* Set the USART address length */
 734:Drivers/STM32L4xx_HAL_Driver/Src/stm32l4xx_hal_uart_ex.c ****   MODIFY_REG(huart->Instance->CR2, USART_CR2_ADDM7, WakeUpSelection.AddressLength);
  57              		.loc 1 734 0 is_stmt 1
  58 0020 2A68     		ldr	r2, [r5]
  59 0022 5368     		ldr	r3, [r2, #4]
  60 0024 23F01003 		bic	r3, r3, #16
  61 0028 2343     		orrs	r3, r3, r4
  62 002a 5360     		str	r3, [r2, #4]
 735:Drivers/STM32L4xx_HAL_Driver/Src/stm32l4xx_hal_uart_ex.c **** 
 736:Drivers/STM32L4xx_HAL_Driver/Src/stm32l4xx_hal_uart_ex.c ****   /* Set the USART address node */
 737:Drivers/STM32L4xx_HAL_Driver/Src/stm32l4xx_hal_uart_ex.c ****   MODIFY_REG(huart->Instance->CR2, USART_CR2_ADD, ((uint32_t)WakeUpSelection.Address << UART_CR2_AD
ARM GAS  /tmp/ccz3bLTm.s 			page 15


  63              		.loc 1 737 0
  64 002c 2A68     		ldr	r2, [r5]
  65 002e 5368     		ldr	r3, [r2, #4]
  66 0030 23F07F43 		bic	r3, r3, #-16777216
  67 0034 9DF80610 		ldrb	r1, [sp, #6]	@ zero_extendqisi2
  68 0038 43EA0163 		orr	r3, r3, r1, lsl #24
  69 003c 5360     		str	r3, [r2, #4]
 738:Drivers/STM32L4xx_HAL_Driver/Src/stm32l4xx_hal_uart_ex.c **** }
  70              		.loc 1 738 0
  71 003e 03B0     		add	sp, sp, #12
  72              	.LCFI2:
  73              		.cfi_def_cfa_offset 12
  74              		@ sp needed
  75 0040 30BD     		pop	{r4, r5, pc}
  76              	.LVL3:
  77              	.L5:
  78 0042 00BF     		.align	2
  79              	.L4:
  80 0044 00000000 		.word	.LC0
  81              		.cfi_endproc
  82              	.LFE292:
  84              		.section	.text.HAL_RS485Ex_Init,"ax",%progbits
  85              		.align	1
  86              		.global	HAL_RS485Ex_Init
  87              		.syntax unified
  88              		.thumb
  89              		.thumb_func
  90              		.fpu fpv4-sp-d16
  92              	HAL_RS485Ex_Init:
  93              	.LFB284:
 172:Drivers/STM32L4xx_HAL_Driver/Src/stm32l4xx_hal_uart_ex.c ****   uint32_t temp;
  94              		.loc 1 172 0
  95              		.cfi_startproc
  96              		@ args = 0, pretend = 0, frame = 0
  97              		@ frame_needed = 0, uses_anonymous_args = 0
  98              	.LVL4:
 176:Drivers/STM32L4xx_HAL_Driver/Src/stm32l4xx_hal_uart_ex.c ****   {
  99              		.loc 1 176 0
 100 0000 0028     		cmp	r0, #0
 101 0002 68D0     		beq	.L14
 172:Drivers/STM32L4xx_HAL_Driver/Src/stm32l4xx_hal_uart_ex.c ****   uint32_t temp;
 102              		.loc 1 172 0
 103 0004 F8B5     		push	{r3, r4, r5, r6, r7, lr}
 104              	.LCFI3:
 105              		.cfi_def_cfa_offset 24
 106              		.cfi_offset 3, -24
 107              		.cfi_offset 4, -20
 108              		.cfi_offset 5, -16
 109              		.cfi_offset 6, -12
 110              		.cfi_offset 7, -8
 111              		.cfi_offset 14, -4
 112 0006 0446     		mov	r4, r0
 113 0008 1D46     		mov	r5, r3
 114 000a 1746     		mov	r7, r2
 115 000c 0E46     		mov	r6, r1
 181:Drivers/STM32L4xx_HAL_Driver/Src/stm32l4xx_hal_uart_ex.c **** 
 116              		.loc 1 181 0
ARM GAS  /tmp/ccz3bLTm.s 			page 16


 117 000e 0368     		ldr	r3, [r0]
 118              	.LVL5:
 119 0010 324A     		ldr	r2, .L23
 120              	.LVL6:
 121 0012 9342     		cmp	r3, r2
 122 0014 0FD0     		beq	.L8
 181:Drivers/STM32L4xx_HAL_Driver/Src/stm32l4xx_hal_uart_ex.c **** 
 123              		.loc 1 181 0 is_stmt 0 discriminator 1
 124 0016 A2F57442 		sub	r2, r2, #62464
 125 001a 9342     		cmp	r3, r2
 126 001c 0BD0     		beq	.L8
 181:Drivers/STM32L4xx_HAL_Driver/Src/stm32l4xx_hal_uart_ex.c **** 
 127              		.loc 1 181 0 discriminator 2
 128 001e 02F58062 		add	r2, r2, #1024
 129 0022 9342     		cmp	r3, r2
 130 0024 07D0     		beq	.L8
 181:Drivers/STM32L4xx_HAL_Driver/Src/stm32l4xx_hal_uart_ex.c **** 
 131              		.loc 1 181 0 discriminator 3
 132 0026 02F56052 		add	r2, r2, #14336
 133 002a 9342     		cmp	r3, r2
 134 002c 03D0     		beq	.L8
 181:Drivers/STM32L4xx_HAL_Driver/Src/stm32l4xx_hal_uart_ex.c **** 
 135              		.loc 1 181 0 discriminator 4
 136 002e B521     		movs	r1, #181
 137              	.LVL7:
 138 0030 2B48     		ldr	r0, .L23+4
 139              	.LVL8:
 140 0032 FFF7FEFF 		bl	assert_failed
 141              	.LVL9:
 142              	.L8:
 184:Drivers/STM32L4xx_HAL_Driver/Src/stm32l4xx_hal_uart_ex.c **** 
 143              		.loc 1 184 0 is_stmt 1
 144 0036 36B1     		cbz	r6, .L9
 184:Drivers/STM32L4xx_HAL_Driver/Src/stm32l4xx_hal_uart_ex.c **** 
 145              		.loc 1 184 0 is_stmt 0 discriminator 1
 146 0038 B6F5004F 		cmp	r6, #32768
 147 003c 03D0     		beq	.L9
 184:Drivers/STM32L4xx_HAL_Driver/Src/stm32l4xx_hal_uart_ex.c **** 
 148              		.loc 1 184 0 discriminator 2
 149 003e B821     		movs	r1, #184
 150 0040 2748     		ldr	r0, .L23+4
 151 0042 FFF7FEFF 		bl	assert_failed
 152              	.LVL10:
 153              	.L9:
 187:Drivers/STM32L4xx_HAL_Driver/Src/stm32l4xx_hal_uart_ex.c **** 
 154              		.loc 1 187 0 is_stmt 1
 155 0046 1F2F     		cmp	r7, #31
 156 0048 31D8     		bhi	.L19
 157              	.L10:
 190:Drivers/STM32L4xx_HAL_Driver/Src/stm32l4xx_hal_uart_ex.c **** 
 158              		.loc 1 190 0
 159 004a 1F2D     		cmp	r5, #31
 160 004c 34D8     		bhi	.L20
 161              	.L11:
 192:Drivers/STM32L4xx_HAL_Driver/Src/stm32l4xx_hal_uart_ex.c ****   {
 162              		.loc 1 192 0
 163 004e 636F     		ldr	r3, [r4, #116]
ARM GAS  /tmp/ccz3bLTm.s 			page 17


 164 0050 002B     		cmp	r3, #0
 165 0052 36D0     		beq	.L21
 166              	.L12:
 213:Drivers/STM32L4xx_HAL_Driver/Src/stm32l4xx_hal_uart_ex.c **** 
 167              		.loc 1 213 0
 168 0054 2423     		movs	r3, #36
 169 0056 6367     		str	r3, [r4, #116]
 216:Drivers/STM32L4xx_HAL_Driver/Src/stm32l4xx_hal_uart_ex.c **** 
 170              		.loc 1 216 0
 171 0058 2268     		ldr	r2, [r4]
 172 005a 1368     		ldr	r3, [r2]
 173 005c 23F00103 		bic	r3, r3, #1
 174 0060 1360     		str	r3, [r2]
 219:Drivers/STM32L4xx_HAL_Driver/Src/stm32l4xx_hal_uart_ex.c ****   {
 175              		.loc 1 219 0
 176 0062 2046     		mov	r0, r4
 177 0064 FFF7FEFF 		bl	UART_SetConfig
 178              	.LVL11:
 179 0068 0128     		cmp	r0, #1
 180 006a 36D0     		beq	.L7
 224:Drivers/STM32L4xx_HAL_Driver/Src/stm32l4xx_hal_uart_ex.c ****   {
 181              		.loc 1 224 0
 182 006c 636A     		ldr	r3, [r4, #36]
 183 006e 73BB     		cbnz	r3, .L22
 184              	.L13:
 230:Drivers/STM32L4xx_HAL_Driver/Src/stm32l4xx_hal_uart_ex.c **** 
 185              		.loc 1 230 0
 186 0070 2268     		ldr	r2, [r4]
 187 0072 9368     		ldr	r3, [r2, #8]
 188 0074 43F48043 		orr	r3, r3, #16384
 189 0078 9360     		str	r3, [r2, #8]
 233:Drivers/STM32L4xx_HAL_Driver/Src/stm32l4xx_hal_uart_ex.c **** 
 190              		.loc 1 233 0
 191 007a 2368     		ldr	r3, [r4]
 192 007c 9968     		ldr	r1, [r3, #8]
 193 007e 21F40041 		bic	r1, r1, #32768
 194 0082 0E43     		orrs	r6, r6, r1
 195              	.LVL12:
 196 0084 9E60     		str	r6, [r3, #8]
 197              	.LVL13:
 237:Drivers/STM32L4xx_HAL_Driver/Src/stm32l4xx_hal_uart_ex.c ****   MODIFY_REG(huart->Instance->CR1, (USART_CR1_DEDT | USART_CR1_DEAT), temp);
 198              		.loc 1 237 0
 199 0086 2D04     		lsls	r5, r5, #16
 200              	.LVL14:
 201 0088 45EA4755 		orr	r5, r5, r7, lsl #21
 202              	.LVL15:
 238:Drivers/STM32L4xx_HAL_Driver/Src/stm32l4xx_hal_uart_ex.c **** 
 203              		.loc 1 238 0
 204 008c 2368     		ldr	r3, [r4]
 205 008e 1A68     		ldr	r2, [r3]
 206 0090 22F07F72 		bic	r2, r2, #66846720
 207 0094 22F44032 		bic	r2, r2, #196608
 208 0098 1543     		orrs	r5, r5, r2
 209              	.LVL16:
 210 009a 1D60     		str	r5, [r3]
 241:Drivers/STM32L4xx_HAL_Driver/Src/stm32l4xx_hal_uart_ex.c **** 
 211              		.loc 1 241 0
ARM GAS  /tmp/ccz3bLTm.s 			page 18


 212 009c 2268     		ldr	r2, [r4]
 213 009e 1368     		ldr	r3, [r2]
 214 00a0 43F00103 		orr	r3, r3, #1
 215 00a4 1360     		str	r3, [r2]
 244:Drivers/STM32L4xx_HAL_Driver/Src/stm32l4xx_hal_uart_ex.c **** }
 216              		.loc 1 244 0
 217 00a6 2046     		mov	r0, r4
 218 00a8 FFF7FEFF 		bl	UART_CheckIdleState
 219              	.LVL17:
 220 00ac F8BD     		pop	{r3, r4, r5, r6, r7, pc}
 221              	.LVL18:
 222              	.L19:
 187:Drivers/STM32L4xx_HAL_Driver/Src/stm32l4xx_hal_uart_ex.c **** 
 223              		.loc 1 187 0 discriminator 1
 224 00ae BB21     		movs	r1, #187
 225 00b0 0B48     		ldr	r0, .L23+4
 226 00b2 FFF7FEFF 		bl	assert_failed
 227              	.LVL19:
 228 00b6 C8E7     		b	.L10
 229              	.L20:
 190:Drivers/STM32L4xx_HAL_Driver/Src/stm32l4xx_hal_uart_ex.c **** 
 230              		.loc 1 190 0 discriminator 1
 231 00b8 BE21     		movs	r1, #190
 232 00ba 0948     		ldr	r0, .L23+4
 233 00bc FFF7FEFF 		bl	assert_failed
 234              	.LVL20:
 235 00c0 C5E7     		b	.L11
 236              	.L21:
 195:Drivers/STM32L4xx_HAL_Driver/Src/stm32l4xx_hal_uart_ex.c **** 
 237              		.loc 1 195 0
 238 00c2 84F87030 		strb	r3, [r4, #112]
 209:Drivers/STM32L4xx_HAL_Driver/Src/stm32l4xx_hal_uart_ex.c **** #endif /* (USE_HAL_UART_REGISTER_CALLBACKS) */
 239              		.loc 1 209 0
 240 00c6 2046     		mov	r0, r4
 241 00c8 FFF7FEFF 		bl	HAL_UART_MspInit
 242              	.LVL21:
 243 00cc C2E7     		b	.L12
 244              	.L22:
 226:Drivers/STM32L4xx_HAL_Driver/Src/stm32l4xx_hal_uart_ex.c ****   }
 245              		.loc 1 226 0
 246 00ce 2046     		mov	r0, r4
 247 00d0 FFF7FEFF 		bl	UART_AdvFeatureConfig
 248              	.LVL22:
 249 00d4 CCE7     		b	.L13
 250              	.LVL23:
 251              	.L14:
 252              	.LCFI4:
 253              		.cfi_def_cfa_offset 0
 254              		.cfi_restore 3
 255              		.cfi_restore 4
 256              		.cfi_restore 5
 257              		.cfi_restore 6
 258              		.cfi_restore 7
 259              		.cfi_restore 14
 178:Drivers/STM32L4xx_HAL_Driver/Src/stm32l4xx_hal_uart_ex.c ****   }
 260              		.loc 1 178 0
 261 00d6 0120     		movs	r0, #1
ARM GAS  /tmp/ccz3bLTm.s 			page 19


 262              	.LVL24:
 263 00d8 7047     		bx	lr
 264              	.LVL25:
 265              	.L7:
 266              	.LCFI5:
 267              		.cfi_def_cfa_offset 24
 268              		.cfi_offset 3, -24
 269              		.cfi_offset 4, -20
 270              		.cfi_offset 5, -16
 271              		.cfi_offset 6, -12
 272              		.cfi_offset 7, -8
 273              		.cfi_offset 14, -4
 245:Drivers/STM32L4xx_HAL_Driver/Src/stm32l4xx_hal_uart_ex.c **** 
 274              		.loc 1 245 0
 275 00da F8BD     		pop	{r3, r4, r5, r6, r7, pc}
 276              	.LVL26:
 277              	.L24:
 278              		.align	2
 279              	.L23:
 280 00dc 00380140 		.word	1073821696
 281 00e0 00000000 		.word	.LC0
 282              		.cfi_endproc
 283              	.LFE284:
 285              		.section	.text.HAL_UARTEx_WakeupCallback,"ax",%progbits
 286              		.align	1
 287              		.weak	HAL_UARTEx_WakeupCallback
 288              		.syntax unified
 289              		.thumb
 290              		.thumb_func
 291              		.fpu fpv4-sp-d16
 293              	HAL_UARTEx_WakeupCallback:
 294              	.LFB285:
 277:Drivers/STM32L4xx_HAL_Driver/Src/stm32l4xx_hal_uart_ex.c ****   /* Prevent unused argument(s) compilation warning */
 295              		.loc 1 277 0
 296              		.cfi_startproc
 297              		@ args = 0, pretend = 0, frame = 0
 298              		@ frame_needed = 0, uses_anonymous_args = 0
 299              		@ link register save eliminated.
 300              	.LVL27:
 301 0000 7047     		bx	lr
 302              		.cfi_endproc
 303              	.LFE285:
 305              		.section	.text.HAL_UARTEx_EnableClockStopMode,"ax",%progbits
 306              		.align	1
 307              		.global	HAL_UARTEx_EnableClockStopMode
 308              		.syntax unified
 309              		.thumb
 310              		.thumb_func
 311              		.fpu fpv4-sp-d16
 313              	HAL_UARTEx_EnableClockStopMode:
 314              	.LFB286:
 360:Drivers/STM32L4xx_HAL_Driver/Src/stm32l4xx_hal_uart_ex.c ****   /* Process Locked */
 315              		.loc 1 360 0
 316              		.cfi_startproc
 317              		@ args = 0, pretend = 0, frame = 0
 318              		@ frame_needed = 0, uses_anonymous_args = 0
 319              		@ link register save eliminated.
ARM GAS  /tmp/ccz3bLTm.s 			page 20


 320              	.LVL28:
 362:Drivers/STM32L4xx_HAL_Driver/Src/stm32l4xx_hal_uart_ex.c **** 
 321              		.loc 1 362 0
 322 0000 90F87030 		ldrb	r3, [r0, #112]	@ zero_extendqisi2
 323 0004 012B     		cmp	r3, #1
 324 0006 0CD0     		beq	.L28
 362:Drivers/STM32L4xx_HAL_Driver/Src/stm32l4xx_hal_uart_ex.c **** 
 325              		.loc 1 362 0 is_stmt 0 discriminator 2
 326 0008 0123     		movs	r3, #1
 327 000a 80F87030 		strb	r3, [r0, #112]
 365:Drivers/STM32L4xx_HAL_Driver/Src/stm32l4xx_hal_uart_ex.c **** 
 328              		.loc 1 365 0 is_stmt 1 discriminator 2
 329 000e 0268     		ldr	r2, [r0]
 330 0010 9368     		ldr	r3, [r2, #8]
 331 0012 43F40003 		orr	r3, r3, #8388608
 332 0016 9360     		str	r3, [r2, #8]
 368:Drivers/STM32L4xx_HAL_Driver/Src/stm32l4xx_hal_uart_ex.c **** 
 333              		.loc 1 368 0 discriminator 2
 334 0018 0023     		movs	r3, #0
 335 001a 80F87030 		strb	r3, [r0, #112]
 370:Drivers/STM32L4xx_HAL_Driver/Src/stm32l4xx_hal_uart_ex.c **** }
 336              		.loc 1 370 0 discriminator 2
 337 001e 1846     		mov	r0, r3
 338              	.LVL29:
 339 0020 7047     		bx	lr
 340              	.LVL30:
 341              	.L28:
 362:Drivers/STM32L4xx_HAL_Driver/Src/stm32l4xx_hal_uart_ex.c **** 
 342              		.loc 1 362 0
 343 0022 0220     		movs	r0, #2
 344              	.LVL31:
 371:Drivers/STM32L4xx_HAL_Driver/Src/stm32l4xx_hal_uart_ex.c **** 
 345              		.loc 1 371 0
 346 0024 7047     		bx	lr
 347              		.cfi_endproc
 348              	.LFE286:
 350              		.section	.text.HAL_UARTEx_DisableClockStopMode,"ax",%progbits
 351              		.align	1
 352              		.global	HAL_UARTEx_DisableClockStopMode
 353              		.syntax unified
 354              		.thumb
 355              		.thumb_func
 356              		.fpu fpv4-sp-d16
 358              	HAL_UARTEx_DisableClockStopMode:
 359              	.LFB287:
 379:Drivers/STM32L4xx_HAL_Driver/Src/stm32l4xx_hal_uart_ex.c ****   /* Process Locked */
 360              		.loc 1 379 0
 361              		.cfi_startproc
 362              		@ args = 0, pretend = 0, frame = 0
 363              		@ frame_needed = 0, uses_anonymous_args = 0
 364              		@ link register save eliminated.
 365              	.LVL32:
 381:Drivers/STM32L4xx_HAL_Driver/Src/stm32l4xx_hal_uart_ex.c **** 
 366              		.loc 1 381 0
 367 0000 90F87030 		ldrb	r3, [r0, #112]	@ zero_extendqisi2
 368 0004 012B     		cmp	r3, #1
 369 0006 0CD0     		beq	.L31
ARM GAS  /tmp/ccz3bLTm.s 			page 21


 381:Drivers/STM32L4xx_HAL_Driver/Src/stm32l4xx_hal_uart_ex.c **** 
 370              		.loc 1 381 0 is_stmt 0 discriminator 2
 371 0008 0123     		movs	r3, #1
 372 000a 80F87030 		strb	r3, [r0, #112]
 384:Drivers/STM32L4xx_HAL_Driver/Src/stm32l4xx_hal_uart_ex.c **** 
 373              		.loc 1 384 0 is_stmt 1 discriminator 2
 374 000e 0268     		ldr	r2, [r0]
 375 0010 9368     		ldr	r3, [r2, #8]
 376 0012 23F40003 		bic	r3, r3, #8388608
 377 0016 9360     		str	r3, [r2, #8]
 387:Drivers/STM32L4xx_HAL_Driver/Src/stm32l4xx_hal_uart_ex.c **** 
 378              		.loc 1 387 0 discriminator 2
 379 0018 0023     		movs	r3, #0
 380 001a 80F87030 		strb	r3, [r0, #112]
 389:Drivers/STM32L4xx_HAL_Driver/Src/stm32l4xx_hal_uart_ex.c **** }
 381              		.loc 1 389 0 discriminator 2
 382 001e 1846     		mov	r0, r3
 383              	.LVL33:
 384 0020 7047     		bx	lr
 385              	.LVL34:
 386              	.L31:
 381:Drivers/STM32L4xx_HAL_Driver/Src/stm32l4xx_hal_uart_ex.c **** 
 387              		.loc 1 381 0
 388 0022 0220     		movs	r0, #2
 389              	.LVL35:
 390:Drivers/STM32L4xx_HAL_Driver/Src/stm32l4xx_hal_uart_ex.c **** #endif /* USART_CR3_UCESM */
 390              		.loc 1 390 0
 391 0024 7047     		bx	lr
 392              		.cfi_endproc
 393              	.LFE287:
 395              		.section	.text.HAL_MultiProcessorEx_AddressLength_Set,"ax",%progbits
 396              		.align	1
 397              		.global	HAL_MultiProcessorEx_AddressLength_Set
 398              		.syntax unified
 399              		.thumb
 400              		.thumb_func
 401              		.fpu fpv4-sp-d16
 403              	HAL_MultiProcessorEx_AddressLength_Set:
 404              	.LFB288:
 407:Drivers/STM32L4xx_HAL_Driver/Src/stm32l4xx_hal_uart_ex.c ****   /* Check the UART handle allocation */
 405              		.loc 1 407 0
 406              		.cfi_startproc
 407              		@ args = 0, pretend = 0, frame = 0
 408              		@ frame_needed = 0, uses_anonymous_args = 0
 409              	.LVL36:
 409:Drivers/STM32L4xx_HAL_Driver/Src/stm32l4xx_hal_uart_ex.c ****   {
 410              		.loc 1 409 0
 411 0000 00B3     		cbz	r0, .L35
 407:Drivers/STM32L4xx_HAL_Driver/Src/stm32l4xx_hal_uart_ex.c ****   /* Check the UART handle allocation */
 412              		.loc 1 407 0
 413 0002 38B5     		push	{r3, r4, r5, lr}
 414              	.LCFI6:
 415              		.cfi_def_cfa_offset 16
 416              		.cfi_offset 3, -16
 417              		.cfi_offset 4, -12
 418              		.cfi_offset 5, -8
 419              		.cfi_offset 14, -4
ARM GAS  /tmp/ccz3bLTm.s 			page 22


 420 0004 0446     		mov	r4, r0
 421 0006 0D46     		mov	r5, r1
 415:Drivers/STM32L4xx_HAL_Driver/Src/stm32l4xx_hal_uart_ex.c **** 
 422              		.loc 1 415 0
 423 0008 31B1     		cbz	r1, .L34
 415:Drivers/STM32L4xx_HAL_Driver/Src/stm32l4xx_hal_uart_ex.c **** 
 424              		.loc 1 415 0 is_stmt 0 discriminator 1
 425 000a 1029     		cmp	r1, #16
 426 000c 04D0     		beq	.L34
 415:Drivers/STM32L4xx_HAL_Driver/Src/stm32l4xx_hal_uart_ex.c **** 
 427              		.loc 1 415 0 discriminator 2
 428 000e 40F29F11 		movw	r1, #415
 429              	.LVL37:
 430 0012 0D48     		ldr	r0, .L40
 431              	.LVL38:
 432 0014 FFF7FEFF 		bl	assert_failed
 433              	.LVL39:
 434              	.L34:
 417:Drivers/STM32L4xx_HAL_Driver/Src/stm32l4xx_hal_uart_ex.c **** 
 435              		.loc 1 417 0 is_stmt 1
 436 0018 2423     		movs	r3, #36
 437 001a 6367     		str	r3, [r4, #116]
 420:Drivers/STM32L4xx_HAL_Driver/Src/stm32l4xx_hal_uart_ex.c **** 
 438              		.loc 1 420 0
 439 001c 2268     		ldr	r2, [r4]
 440 001e 1368     		ldr	r3, [r2]
 441 0020 23F00103 		bic	r3, r3, #1
 442 0024 1360     		str	r3, [r2]
 423:Drivers/STM32L4xx_HAL_Driver/Src/stm32l4xx_hal_uart_ex.c **** 
 443              		.loc 1 423 0
 444 0026 2368     		ldr	r3, [r4]
 445 0028 5968     		ldr	r1, [r3, #4]
 446 002a 21F01001 		bic	r1, r1, #16
 447 002e 0D43     		orrs	r5, r5, r1
 448              	.LVL40:
 449 0030 5D60     		str	r5, [r3, #4]
 426:Drivers/STM32L4xx_HAL_Driver/Src/stm32l4xx_hal_uart_ex.c **** 
 450              		.loc 1 426 0
 451 0032 2268     		ldr	r2, [r4]
 452 0034 1368     		ldr	r3, [r2]
 453 0036 43F00103 		orr	r3, r3, #1
 454 003a 1360     		str	r3, [r2]
 429:Drivers/STM32L4xx_HAL_Driver/Src/stm32l4xx_hal_uart_ex.c **** }
 455              		.loc 1 429 0
 456 003c 2046     		mov	r0, r4
 457 003e FFF7FEFF 		bl	UART_CheckIdleState
 458              	.LVL41:
 459 0042 38BD     		pop	{r3, r4, r5, pc}
 460              	.LVL42:
 461              	.L35:
 462              	.LCFI7:
 463              		.cfi_def_cfa_offset 0
 464              		.cfi_restore 3
 465              		.cfi_restore 4
 466              		.cfi_restore 5
 467              		.cfi_restore 14
 411:Drivers/STM32L4xx_HAL_Driver/Src/stm32l4xx_hal_uart_ex.c ****   }
ARM GAS  /tmp/ccz3bLTm.s 			page 23


 468              		.loc 1 411 0
 469 0044 0120     		movs	r0, #1
 470              	.LVL43:
 471 0046 7047     		bx	lr
 472              	.L41:
 473              		.align	2
 474              	.L40:
 475 0048 00000000 		.word	.LC0
 476              		.cfi_endproc
 477              	.LFE288:
 479              		.section	.text.HAL_UARTEx_StopModeWakeUpSourceConfig,"ax",%progbits
 480              		.align	1
 481              		.global	HAL_UARTEx_StopModeWakeUpSourceConfig
 482              		.syntax unified
 483              		.thumb
 484              		.thumb_func
 485              		.fpu fpv4-sp-d16
 487              	HAL_UARTEx_StopModeWakeUpSourceConfig:
 488              	.LFB289:
 445:Drivers/STM32L4xx_HAL_Driver/Src/stm32l4xx_hal_uart_ex.c ****   HAL_StatusTypeDef status = HAL_OK;
 489              		.loc 1 445 0
 490              		.cfi_startproc
 491              		@ args = 0, pretend = 0, frame = 8
 492              		@ frame_needed = 0, uses_anonymous_args = 0
 493              	.LVL44:
 494 0000 30B5     		push	{r4, r5, lr}
 495              	.LCFI8:
 496              		.cfi_def_cfa_offset 12
 497              		.cfi_offset 4, -12
 498              		.cfi_offset 5, -8
 499              		.cfi_offset 14, -4
 500 0002 85B0     		sub	sp, sp, #20
 501              	.LCFI9:
 502              		.cfi_def_cfa_offset 32
 503 0004 0446     		mov	r4, r0
 504 0006 04AB     		add	r3, sp, #16
 505 0008 03E90600 		stmdb	r3, {r1, r2}
 506              	.LVL45:
 450:Drivers/STM32L4xx_HAL_Driver/Src/stm32l4xx_hal_uart_ex.c ****   /* check the wake-up selection parameter */
 507              		.loc 1 450 0
 508 000c 0368     		ldr	r3, [r0]
 509 000e 2E4A     		ldr	r2, .L52
 510 0010 9342     		cmp	r3, r2
 511 0012 10D0     		beq	.L43
 450:Drivers/STM32L4xx_HAL_Driver/Src/stm32l4xx_hal_uart_ex.c ****   /* check the wake-up selection parameter */
 512              		.loc 1 450 0 is_stmt 0 discriminator 1
 513 0014 A2F57442 		sub	r2, r2, #62464
 514 0018 9342     		cmp	r3, r2
 515 001a 0CD0     		beq	.L43
 450:Drivers/STM32L4xx_HAL_Driver/Src/stm32l4xx_hal_uart_ex.c ****   /* check the wake-up selection parameter */
 516              		.loc 1 450 0 discriminator 2
 517 001c 02F58062 		add	r2, r2, #1024
 518 0020 9342     		cmp	r3, r2
 519 0022 08D0     		beq	.L43
 450:Drivers/STM32L4xx_HAL_Driver/Src/stm32l4xx_hal_uart_ex.c ****   /* check the wake-up selection parameter */
 520              		.loc 1 450 0 discriminator 3
 521 0024 02F56052 		add	r2, r2, #14336
ARM GAS  /tmp/ccz3bLTm.s 			page 24


 522 0028 9342     		cmp	r3, r2
 523 002a 04D0     		beq	.L43
 450:Drivers/STM32L4xx_HAL_Driver/Src/stm32l4xx_hal_uart_ex.c ****   /* check the wake-up selection parameter */
 524              		.loc 1 450 0 discriminator 4
 525 002c 4FF4E171 		mov	r1, #450
 526 0030 2648     		ldr	r0, .L52+4
 527              	.LVL46:
 528 0032 FFF7FEFF 		bl	assert_failed
 529              	.LVL47:
 530              	.L43:
 452:Drivers/STM32L4xx_HAL_Driver/Src/stm32l4xx_hal_uart_ex.c **** 
 531              		.loc 1 452 0 is_stmt 1
 532 0036 029D     		ldr	r5, [sp, #8]
 533 0038 55B1     		cbz	r5, .L44
 452:Drivers/STM32L4xx_HAL_Driver/Src/stm32l4xx_hal_uart_ex.c **** 
 534              		.loc 1 452 0 is_stmt 0 discriminator 1
 535 003a B5F5001F 		cmp	r5, #2097152
 536 003e 07D0     		beq	.L44
 452:Drivers/STM32L4xx_HAL_Driver/Src/stm32l4xx_hal_uart_ex.c **** 
 537              		.loc 1 452 0 discriminator 2
 538 0040 B5F5401F 		cmp	r5, #3145728
 539 0044 04D0     		beq	.L44
 452:Drivers/STM32L4xx_HAL_Driver/Src/stm32l4xx_hal_uart_ex.c **** 
 540              		.loc 1 452 0 discriminator 3
 541 0046 4FF4E271 		mov	r1, #452
 542 004a 2048     		ldr	r0, .L52+4
 543 004c FFF7FEFF 		bl	assert_failed
 544              	.LVL48:
 545              	.L44:
 455:Drivers/STM32L4xx_HAL_Driver/Src/stm32l4xx_hal_uart_ex.c **** 
 546              		.loc 1 455 0 is_stmt 1
 547 0050 94F87030 		ldrb	r3, [r4, #112]	@ zero_extendqisi2
 548 0054 012B     		cmp	r3, #1
 549 0056 34D0     		beq	.L48
 455:Drivers/STM32L4xx_HAL_Driver/Src/stm32l4xx_hal_uart_ex.c **** 
 550              		.loc 1 455 0 is_stmt 0 discriminator 2
 551 0058 0123     		movs	r3, #1
 552 005a 84F87030 		strb	r3, [r4, #112]
 457:Drivers/STM32L4xx_HAL_Driver/Src/stm32l4xx_hal_uart_ex.c **** 
 553              		.loc 1 457 0 is_stmt 1 discriminator 2
 554 005e 2423     		movs	r3, #36
 555 0060 6367     		str	r3, [r4, #116]
 460:Drivers/STM32L4xx_HAL_Driver/Src/stm32l4xx_hal_uart_ex.c **** 
 556              		.loc 1 460 0 discriminator 2
 557 0062 2268     		ldr	r2, [r4]
 558 0064 1368     		ldr	r3, [r2]
 559 0066 23F00103 		bic	r3, r3, #1
 560 006a 1360     		str	r3, [r2]
 463:Drivers/STM32L4xx_HAL_Driver/Src/stm32l4xx_hal_uart_ex.c **** 
 561              		.loc 1 463 0 discriminator 2
 562 006c 2268     		ldr	r2, [r4]
 563 006e 9368     		ldr	r3, [r2, #8]
 564 0070 23F44013 		bic	r3, r3, #3145728
 565 0074 2B43     		orrs	r3, r3, r5
 566 0076 9360     		str	r3, [r2, #8]
 465:Drivers/STM32L4xx_HAL_Driver/Src/stm32l4xx_hal_uart_ex.c ****   {
 567              		.loc 1 465 0 discriminator 2
ARM GAS  /tmp/ccz3bLTm.s 			page 25


 568 0078 D5B1     		cbz	r5, .L51
 569              	.L46:
 471:Drivers/STM32L4xx_HAL_Driver/Src/stm32l4xx_hal_uart_ex.c **** 
 570              		.loc 1 471 0
 571 007a 2268     		ldr	r2, [r4]
 572 007c 1368     		ldr	r3, [r2]
 573 007e 43F00103 		orr	r3, r3, #1
 574 0082 1360     		str	r3, [r2]
 474:Drivers/STM32L4xx_HAL_Driver/Src/stm32l4xx_hal_uart_ex.c **** 
 575              		.loc 1 474 0
 576 0084 FFF7FEFF 		bl	HAL_GetTick
 577              	.LVL49:
 477:Drivers/STM32L4xx_HAL_Driver/Src/stm32l4xx_hal_uart_ex.c ****   {
 578              		.loc 1 477 0
 579 0088 6FF07E43 		mvn	r3, #-33554432
 580 008c 0093     		str	r3, [sp]
 581 008e 0346     		mov	r3, r0
 582 0090 0022     		movs	r2, #0
 583 0092 4FF48001 		mov	r1, #4194304
 584 0096 2046     		mov	r0, r4
 585              	.LVL50:
 586 0098 FFF7FEFF 		bl	UART_WaitOnFlagUntilTimeout
 587              	.LVL51:
 588 009c 0346     		mov	r3, r0
 589 009e 70B9     		cbnz	r0, .L49
 484:Drivers/STM32L4xx_HAL_Driver/Src/stm32l4xx_hal_uart_ex.c ****   }
 590              		.loc 1 484 0
 591 00a0 2022     		movs	r2, #32
 592 00a2 6267     		str	r2, [r4, #116]
 593              	.L47:
 594              	.LVL52:
 488:Drivers/STM32L4xx_HAL_Driver/Src/stm32l4xx_hal_uart_ex.c **** 
 595              		.loc 1 488 0
 596 00a4 0022     		movs	r2, #0
 597 00a6 84F87020 		strb	r2, [r4, #112]
 598              	.LVL53:
 599              	.L45:
 491:Drivers/STM32L4xx_HAL_Driver/Src/stm32l4xx_hal_uart_ex.c **** 
 600              		.loc 1 491 0
 601 00aa 1846     		mov	r0, r3
 602 00ac 05B0     		add	sp, sp, #20
 603              	.LCFI10:
 604              		.cfi_remember_state
 605              		.cfi_def_cfa_offset 12
 606              		@ sp needed
 607 00ae 30BD     		pop	{r4, r5, pc}
 608              	.LVL54:
 609              	.L51:
 610              	.LCFI11:
 611              		.cfi_restore_state
 467:Drivers/STM32L4xx_HAL_Driver/Src/stm32l4xx_hal_uart_ex.c ****   }
 612              		.loc 1 467 0
 613 00b0 04AB     		add	r3, sp, #16
 614 00b2 13E90600 		ldmdb	r3, {r1, r2}
 615 00b6 2046     		mov	r0, r4
 616 00b8 FFF7FEFF 		bl	UARTEx_Wakeup_AddressConfig
 617              	.LVL55:
ARM GAS  /tmp/ccz3bLTm.s 			page 26


 618 00bc DDE7     		b	.L46
 619              	.L49:
 479:Drivers/STM32L4xx_HAL_Driver/Src/stm32l4xx_hal_uart_ex.c ****   }
 620              		.loc 1 479 0
 621 00be 0323     		movs	r3, #3
 622 00c0 F0E7     		b	.L47
 623              	.L48:
 455:Drivers/STM32L4xx_HAL_Driver/Src/stm32l4xx_hal_uart_ex.c **** 
 624              		.loc 1 455 0
 625 00c2 0223     		movs	r3, #2
 626 00c4 F1E7     		b	.L45
 627              	.L53:
 628 00c6 00BF     		.align	2
 629              	.L52:
 630 00c8 00380140 		.word	1073821696
 631 00cc 00000000 		.word	.LC0
 632              		.cfi_endproc
 633              	.LFE289:
 635              		.section	.text.HAL_UARTEx_EnableStopMode,"ax",%progbits
 636              		.align	1
 637              		.global	HAL_UARTEx_EnableStopMode
 638              		.syntax unified
 639              		.thumb
 640              		.thumb_func
 641              		.fpu fpv4-sp-d16
 643              	HAL_UARTEx_EnableStopMode:
 644              	.LFB290:
 500:Drivers/STM32L4xx_HAL_Driver/Src/stm32l4xx_hal_uart_ex.c ****   /* Process Locked */
 645              		.loc 1 500 0
 646              		.cfi_startproc
 647              		@ args = 0, pretend = 0, frame = 0
 648              		@ frame_needed = 0, uses_anonymous_args = 0
 649              		@ link register save eliminated.
 650              	.LVL56:
 502:Drivers/STM32L4xx_HAL_Driver/Src/stm32l4xx_hal_uart_ex.c **** 
 651              		.loc 1 502 0
 652 0000 90F87030 		ldrb	r3, [r0, #112]	@ zero_extendqisi2
 653 0004 012B     		cmp	r3, #1
 654 0006 0CD0     		beq	.L56
 502:Drivers/STM32L4xx_HAL_Driver/Src/stm32l4xx_hal_uart_ex.c **** 
 655              		.loc 1 502 0 is_stmt 0 discriminator 2
 656 0008 0123     		movs	r3, #1
 657 000a 80F87030 		strb	r3, [r0, #112]
 505:Drivers/STM32L4xx_HAL_Driver/Src/stm32l4xx_hal_uart_ex.c **** 
 658              		.loc 1 505 0 is_stmt 1 discriminator 2
 659 000e 0268     		ldr	r2, [r0]
 660 0010 1368     		ldr	r3, [r2]
 661 0012 43F00203 		orr	r3, r3, #2
 662 0016 1360     		str	r3, [r2]
 508:Drivers/STM32L4xx_HAL_Driver/Src/stm32l4xx_hal_uart_ex.c **** 
 663              		.loc 1 508 0 discriminator 2
 664 0018 0023     		movs	r3, #0
 665 001a 80F87030 		strb	r3, [r0, #112]
 510:Drivers/STM32L4xx_HAL_Driver/Src/stm32l4xx_hal_uart_ex.c **** }
 666              		.loc 1 510 0 discriminator 2
 667 001e 1846     		mov	r0, r3
 668              	.LVL57:
ARM GAS  /tmp/ccz3bLTm.s 			page 27


 669 0020 7047     		bx	lr
 670              	.LVL58:
 671              	.L56:
 502:Drivers/STM32L4xx_HAL_Driver/Src/stm32l4xx_hal_uart_ex.c **** 
 672              		.loc 1 502 0
 673 0022 0220     		movs	r0, #2
 674              	.LVL59:
 511:Drivers/STM32L4xx_HAL_Driver/Src/stm32l4xx_hal_uart_ex.c **** 
 675              		.loc 1 511 0
 676 0024 7047     		bx	lr
 677              		.cfi_endproc
 678              	.LFE290:
 680              		.section	.text.HAL_UARTEx_DisableStopMode,"ax",%progbits
 681              		.align	1
 682              		.global	HAL_UARTEx_DisableStopMode
 683              		.syntax unified
 684              		.thumb
 685              		.thumb_func
 686              		.fpu fpv4-sp-d16
 688              	HAL_UARTEx_DisableStopMode:
 689              	.LFB291:
 519:Drivers/STM32L4xx_HAL_Driver/Src/stm32l4xx_hal_uart_ex.c ****   /* Process Locked */
 690              		.loc 1 519 0
 691              		.cfi_startproc
 692              		@ args = 0, pretend = 0, frame = 0
 693              		@ frame_needed = 0, uses_anonymous_args = 0
 694              		@ link register save eliminated.
 695              	.LVL60:
 521:Drivers/STM32L4xx_HAL_Driver/Src/stm32l4xx_hal_uart_ex.c **** 
 696              		.loc 1 521 0
 697 0000 90F87030 		ldrb	r3, [r0, #112]	@ zero_extendqisi2
 698 0004 012B     		cmp	r3, #1
 699 0006 0CD0     		beq	.L59
 521:Drivers/STM32L4xx_HAL_Driver/Src/stm32l4xx_hal_uart_ex.c **** 
 700              		.loc 1 521 0 is_stmt 0 discriminator 2
 701 0008 0123     		movs	r3, #1
 702 000a 80F87030 		strb	r3, [r0, #112]
 524:Drivers/STM32L4xx_HAL_Driver/Src/stm32l4xx_hal_uart_ex.c **** 
 703              		.loc 1 524 0 is_stmt 1 discriminator 2
 704 000e 0268     		ldr	r2, [r0]
 705 0010 1368     		ldr	r3, [r2]
 706 0012 23F00203 		bic	r3, r3, #2
 707 0016 1360     		str	r3, [r2]
 527:Drivers/STM32L4xx_HAL_Driver/Src/stm32l4xx_hal_uart_ex.c **** 
 708              		.loc 1 527 0 discriminator 2
 709 0018 0023     		movs	r3, #0
 710 001a 80F87030 		strb	r3, [r0, #112]
 529:Drivers/STM32L4xx_HAL_Driver/Src/stm32l4xx_hal_uart_ex.c **** }
 711              		.loc 1 529 0 discriminator 2
 712 001e 1846     		mov	r0, r3
 713              	.LVL61:
 714 0020 7047     		bx	lr
 715              	.LVL62:
 716              	.L59:
 521:Drivers/STM32L4xx_HAL_Driver/Src/stm32l4xx_hal_uart_ex.c **** 
 717              		.loc 1 521 0
 718 0022 0220     		movs	r0, #2
ARM GAS  /tmp/ccz3bLTm.s 			page 28


 719              	.LVL63:
 530:Drivers/STM32L4xx_HAL_Driver/Src/stm32l4xx_hal_uart_ex.c **** 
 720              		.loc 1 530 0
 721 0024 7047     		bx	lr
 722              		.cfi_endproc
 723              	.LFE291:
 725              		.section	.rodata.UARTEx_Wakeup_AddressConfig.str1.4,"aMS",%progbits,1
 726              		.align	2
 727              	.LC0:
 728 0000 44726976 		.ascii	"Drivers/STM32L4xx_HAL_Driver/Src/stm32l4xx_hal_uart"
 728      6572732F 
 728      53544D33 
 728      324C3478 
 728      785F4841 
 729 0033 5F65782E 		.ascii	"_ex.c\000"
 729      6300
 730              		.text
 731              	.Letext0:
 732              		.file 2 "/usr/include/newlib/machine/_default_types.h"
 733              		.file 3 "/usr/include/newlib/sys/_stdint.h"
 734              		.file 4 "Drivers/CMSIS/Include/core_cm4.h"
 735              		.file 5 "Drivers/CMSIS/Device/ST/STM32L4xx/Include/system_stm32l4xx.h"
 736              		.file 6 "Drivers/CMSIS/Device/ST/STM32L4xx/Include/stm32l433xx.h"
 737              		.file 7 "Drivers/CMSIS/Device/ST/STM32L4xx/Include/stm32l4xx.h"
 738              		.file 8 "Drivers/STM32L4xx_HAL_Driver/Inc/stm32l4xx_hal_def.h"
 739              		.file 9 "Drivers/STM32L4xx_HAL_Driver/Inc/stm32l4xx_hal_dma.h"
 740              		.file 10 "Drivers/STM32L4xx_HAL_Driver/Inc/stm32l4xx_hal_flash.h"
 741              		.file 11 "Drivers/STM32L4xx_HAL_Driver/Inc/stm32l4xx_hal_uart.h"
 742              		.file 12 "Drivers/STM32L4xx_HAL_Driver/Inc/stm32l4xx_hal_uart_ex.h"
 743              		.file 13 "Drivers/STM32L4xx_HAL_Driver/Inc/stm32l4xx_hal.h"
 744              		.file 14 "Inc/stm32l4xx_hal_conf.h"
ARM GAS  /tmp/ccz3bLTm.s 			page 29

